
TriacControl.elf:     file format elf32-littlearm

Sections:
Idx Name          Size      VMA       LMA       File off  Algn
  0 .isr_vector   000000c0  08000000  08000000  00010000  2**0
                  CONTENTS, ALLOC, LOAD, READONLY, DATA
  1 .text         0000231c  080000c0  080000c0  000100c0  2**2
                  CONTENTS, ALLOC, LOAD, READONLY, CODE
  2 .rodata       00000030  080023dc  080023dc  000123dc  2**2
                  CONTENTS, ALLOC, LOAD, READONLY, DATA
  3 .ARM.extab    00000000  0800240c  0800240c  0002000c  2**0
                  CONTENTS
  4 .ARM          00000000  0800240c  0800240c  0002000c  2**0
                  CONTENTS
  5 .preinit_array 00000000  0800240c  0800240c  0002000c  2**0
                  CONTENTS, ALLOC, LOAD, DATA
  6 .init_array   00000004  0800240c  0800240c  0001240c  2**2
                  CONTENTS, ALLOC, LOAD, DATA
  7 .fini_array   00000004  08002410  08002410  00012410  2**2
                  CONTENTS, ALLOC, LOAD, DATA
  8 .data         0000000c  20000000  08002414  00020000  2**2
                  CONTENTS, ALLOC, LOAD, DATA
  9 .bss          00000070  2000000c  08002420  0002000c  2**2
                  ALLOC
 10 ._user_heap_stack 00000604  2000007c  08002420  0002007c  2**0
                  ALLOC
 11 .ARM.attributes 00000028  00000000  00000000  0002000c  2**0
                  CONTENTS, READONLY
 12 .comment      00000043  00000000  00000000  00020034  2**0
                  CONTENTS, READONLY
 13 .debug_info   0000788b  00000000  00000000  00020077  2**0
                  CONTENTS, READONLY, DEBUGGING, OCTETS
 14 .debug_abbrev 000015c7  00000000  00000000  00027902  2**0
                  CONTENTS, READONLY, DEBUGGING, OCTETS
 15 .debug_aranges 000008d0  00000000  00000000  00028ed0  2**3
                  CONTENTS, READONLY, DEBUGGING, OCTETS
 16 .debug_rnglists 000006d3  00000000  00000000  000297a0  2**0
                  CONTENTS, READONLY, DEBUGGING, OCTETS
 17 .debug_macro  0000edc1  00000000  00000000  00029e73  2**0
                  CONTENTS, READONLY, DEBUGGING, OCTETS
 18 .debug_line   00009dbc  00000000  00000000  00038c34  2**0
                  CONTENTS, READONLY, DEBUGGING, OCTETS
 19 .debug_str    0005d02c  00000000  00000000  000429f0  2**0
                  CONTENTS, READONLY, DEBUGGING, OCTETS
 20 .debug_frame  00001f6c  00000000  00000000  0009fa1c  2**2
                  CONTENTS, READONLY, DEBUGGING, OCTETS
 21 .debug_line_str 00000053  00000000  00000000  000a1988  2**0
                  CONTENTS, READONLY, DEBUGGING, OCTETS

Disassembly of section .text:

080000c0 <__do_global_dtors_aux>:
 80000c0:	b510      	push	{r4, lr}
 80000c2:	4c06      	ldr	r4, [pc, #24]	; (80000dc <__do_global_dtors_aux+0x1c>)
 80000c4:	7823      	ldrb	r3, [r4, #0]
 80000c6:	2b00      	cmp	r3, #0
 80000c8:	d107      	bne.n	80000da <__do_global_dtors_aux+0x1a>
 80000ca:	4b05      	ldr	r3, [pc, #20]	; (80000e0 <__do_global_dtors_aux+0x20>)
 80000cc:	2b00      	cmp	r3, #0
 80000ce:	d002      	beq.n	80000d6 <__do_global_dtors_aux+0x16>
 80000d0:	4804      	ldr	r0, [pc, #16]	; (80000e4 <__do_global_dtors_aux+0x24>)
 80000d2:	e000      	b.n	80000d6 <__do_global_dtors_aux+0x16>
 80000d4:	bf00      	nop
 80000d6:	2301      	movs	r3, #1
 80000d8:	7023      	strb	r3, [r4, #0]
 80000da:	bd10      	pop	{r4, pc}
 80000dc:	2000000c 	.word	0x2000000c
 80000e0:	00000000 	.word	0x00000000
 80000e4:	080023c4 	.word	0x080023c4

080000e8 <frame_dummy>:
 80000e8:	4b04      	ldr	r3, [pc, #16]	; (80000fc <frame_dummy+0x14>)
 80000ea:	b510      	push	{r4, lr}
 80000ec:	2b00      	cmp	r3, #0
 80000ee:	d003      	beq.n	80000f8 <frame_dummy+0x10>
 80000f0:	4903      	ldr	r1, [pc, #12]	; (8000100 <frame_dummy+0x18>)
 80000f2:	4804      	ldr	r0, [pc, #16]	; (8000104 <frame_dummy+0x1c>)
 80000f4:	e000      	b.n	80000f8 <frame_dummy+0x10>
 80000f6:	bf00      	nop
 80000f8:	bd10      	pop	{r4, pc}
 80000fa:	46c0      	nop			; (mov r8, r8)
 80000fc:	00000000 	.word	0x00000000
 8000100:	20000010 	.word	0x20000010
 8000104:	080023c4 	.word	0x080023c4

08000108 <__udivsi3>:
 8000108:	2200      	movs	r2, #0
 800010a:	0843      	lsrs	r3, r0, #1
 800010c:	428b      	cmp	r3, r1
 800010e:	d374      	bcc.n	80001fa <__udivsi3+0xf2>
 8000110:	0903      	lsrs	r3, r0, #4
 8000112:	428b      	cmp	r3, r1
 8000114:	d35f      	bcc.n	80001d6 <__udivsi3+0xce>
 8000116:	0a03      	lsrs	r3, r0, #8
 8000118:	428b      	cmp	r3, r1
 800011a:	d344      	bcc.n	80001a6 <__udivsi3+0x9e>
 800011c:	0b03      	lsrs	r3, r0, #12
 800011e:	428b      	cmp	r3, r1
 8000120:	d328      	bcc.n	8000174 <__udivsi3+0x6c>
 8000122:	0c03      	lsrs	r3, r0, #16
 8000124:	428b      	cmp	r3, r1
 8000126:	d30d      	bcc.n	8000144 <__udivsi3+0x3c>
 8000128:	22ff      	movs	r2, #255	; 0xff
 800012a:	0209      	lsls	r1, r1, #8
 800012c:	ba12      	rev	r2, r2
 800012e:	0c03      	lsrs	r3, r0, #16
 8000130:	428b      	cmp	r3, r1
 8000132:	d302      	bcc.n	800013a <__udivsi3+0x32>
 8000134:	1212      	asrs	r2, r2, #8
 8000136:	0209      	lsls	r1, r1, #8
 8000138:	d065      	beq.n	8000206 <__udivsi3+0xfe>
 800013a:	0b03      	lsrs	r3, r0, #12
 800013c:	428b      	cmp	r3, r1
 800013e:	d319      	bcc.n	8000174 <__udivsi3+0x6c>
 8000140:	e000      	b.n	8000144 <__udivsi3+0x3c>
 8000142:	0a09      	lsrs	r1, r1, #8
 8000144:	0bc3      	lsrs	r3, r0, #15
 8000146:	428b      	cmp	r3, r1
 8000148:	d301      	bcc.n	800014e <__udivsi3+0x46>
 800014a:	03cb      	lsls	r3, r1, #15
 800014c:	1ac0      	subs	r0, r0, r3
 800014e:	4152      	adcs	r2, r2
 8000150:	0b83      	lsrs	r3, r0, #14
 8000152:	428b      	cmp	r3, r1
 8000154:	d301      	bcc.n	800015a <__udivsi3+0x52>
 8000156:	038b      	lsls	r3, r1, #14
 8000158:	1ac0      	subs	r0, r0, r3
 800015a:	4152      	adcs	r2, r2
 800015c:	0b43      	lsrs	r3, r0, #13
 800015e:	428b      	cmp	r3, r1
 8000160:	d301      	bcc.n	8000166 <__udivsi3+0x5e>
 8000162:	034b      	lsls	r3, r1, #13
 8000164:	1ac0      	subs	r0, r0, r3
 8000166:	4152      	adcs	r2, r2
 8000168:	0b03      	lsrs	r3, r0, #12
 800016a:	428b      	cmp	r3, r1
 800016c:	d301      	bcc.n	8000172 <__udivsi3+0x6a>
 800016e:	030b      	lsls	r3, r1, #12
 8000170:	1ac0      	subs	r0, r0, r3
 8000172:	4152      	adcs	r2, r2
 8000174:	0ac3      	lsrs	r3, r0, #11
 8000176:	428b      	cmp	r3, r1
 8000178:	d301      	bcc.n	800017e <__udivsi3+0x76>
 800017a:	02cb      	lsls	r3, r1, #11
 800017c:	1ac0      	subs	r0, r0, r3
 800017e:	4152      	adcs	r2, r2
 8000180:	0a83      	lsrs	r3, r0, #10
 8000182:	428b      	cmp	r3, r1
 8000184:	d301      	bcc.n	800018a <__udivsi3+0x82>
 8000186:	028b      	lsls	r3, r1, #10
 8000188:	1ac0      	subs	r0, r0, r3
 800018a:	4152      	adcs	r2, r2
 800018c:	0a43      	lsrs	r3, r0, #9
 800018e:	428b      	cmp	r3, r1
 8000190:	d301      	bcc.n	8000196 <__udivsi3+0x8e>
 8000192:	024b      	lsls	r3, r1, #9
 8000194:	1ac0      	subs	r0, r0, r3
 8000196:	4152      	adcs	r2, r2
 8000198:	0a03      	lsrs	r3, r0, #8
 800019a:	428b      	cmp	r3, r1
 800019c:	d301      	bcc.n	80001a2 <__udivsi3+0x9a>
 800019e:	020b      	lsls	r3, r1, #8
 80001a0:	1ac0      	subs	r0, r0, r3
 80001a2:	4152      	adcs	r2, r2
 80001a4:	d2cd      	bcs.n	8000142 <__udivsi3+0x3a>
 80001a6:	09c3      	lsrs	r3, r0, #7
 80001a8:	428b      	cmp	r3, r1
 80001aa:	d301      	bcc.n	80001b0 <__udivsi3+0xa8>
 80001ac:	01cb      	lsls	r3, r1, #7
 80001ae:	1ac0      	subs	r0, r0, r3
 80001b0:	4152      	adcs	r2, r2
 80001b2:	0983      	lsrs	r3, r0, #6
 80001b4:	428b      	cmp	r3, r1
 80001b6:	d301      	bcc.n	80001bc <__udivsi3+0xb4>
 80001b8:	018b      	lsls	r3, r1, #6
 80001ba:	1ac0      	subs	r0, r0, r3
 80001bc:	4152      	adcs	r2, r2
 80001be:	0943      	lsrs	r3, r0, #5
 80001c0:	428b      	cmp	r3, r1
 80001c2:	d301      	bcc.n	80001c8 <__udivsi3+0xc0>
 80001c4:	014b      	lsls	r3, r1, #5
 80001c6:	1ac0      	subs	r0, r0, r3
 80001c8:	4152      	adcs	r2, r2
 80001ca:	0903      	lsrs	r3, r0, #4
 80001cc:	428b      	cmp	r3, r1
 80001ce:	d301      	bcc.n	80001d4 <__udivsi3+0xcc>
 80001d0:	010b      	lsls	r3, r1, #4
 80001d2:	1ac0      	subs	r0, r0, r3
 80001d4:	4152      	adcs	r2, r2
 80001d6:	08c3      	lsrs	r3, r0, #3
 80001d8:	428b      	cmp	r3, r1
 80001da:	d301      	bcc.n	80001e0 <__udivsi3+0xd8>
 80001dc:	00cb      	lsls	r3, r1, #3
 80001de:	1ac0      	subs	r0, r0, r3
 80001e0:	4152      	adcs	r2, r2
 80001e2:	0883      	lsrs	r3, r0, #2
 80001e4:	428b      	cmp	r3, r1
 80001e6:	d301      	bcc.n	80001ec <__udivsi3+0xe4>
 80001e8:	008b      	lsls	r3, r1, #2
 80001ea:	1ac0      	subs	r0, r0, r3
 80001ec:	4152      	adcs	r2, r2
 80001ee:	0843      	lsrs	r3, r0, #1
 80001f0:	428b      	cmp	r3, r1
 80001f2:	d301      	bcc.n	80001f8 <__udivsi3+0xf0>
 80001f4:	004b      	lsls	r3, r1, #1
 80001f6:	1ac0      	subs	r0, r0, r3
 80001f8:	4152      	adcs	r2, r2
 80001fa:	1a41      	subs	r1, r0, r1
 80001fc:	d200      	bcs.n	8000200 <__udivsi3+0xf8>
 80001fe:	4601      	mov	r1, r0
 8000200:	4152      	adcs	r2, r2
 8000202:	4610      	mov	r0, r2
 8000204:	4770      	bx	lr
 8000206:	e7ff      	b.n	8000208 <__udivsi3+0x100>
 8000208:	b501      	push	{r0, lr}
 800020a:	2000      	movs	r0, #0
 800020c:	f000 f806 	bl	800021c <__aeabi_idiv0>
 8000210:	bd02      	pop	{r1, pc}
 8000212:	46c0      	nop			; (mov r8, r8)

08000214 <__aeabi_uidivmod>:
 8000214:	2900      	cmp	r1, #0
 8000216:	d0f7      	beq.n	8000208 <__udivsi3+0x100>
 8000218:	e776      	b.n	8000108 <__udivsi3>
 800021a:	4770      	bx	lr

0800021c <__aeabi_idiv0>:
 800021c:	4770      	bx	lr
 800021e:	46c0      	nop			; (mov r8, r8)

08000220 <HAL_GPIO_EXTI_Callback>:
/* USER CODE END PFP */

/* Private user code ---------------------------------------------------------*/
/* USER CODE BEGIN 0 */

void HAL_GPIO_EXTI_Callback(uint16_t GPIO_Pin) {
 8000220:	b580      	push	{r7, lr}
 8000222:	b082      	sub	sp, #8
 8000224:	af00      	add	r7, sp, #0
 8000226:	0002      	movs	r2, r0
 8000228:	1dbb      	adds	r3, r7, #6
 800022a:	801a      	strh	r2, [r3, #0]
	static uint8_t Flag = 0;
	if (GPIO_Pin == AC_Zero_Pin){
 800022c:	1dbb      	adds	r3, r7, #6
 800022e:	881b      	ldrh	r3, [r3, #0]
 8000230:	2b40      	cmp	r3, #64	; 0x40
 8000232:	d122      	bne.n	800027a <HAL_GPIO_EXTI_Callback+0x5a>
		  if(HAL_GPIO_ReadPin(AC_Zero_GPIO_Port, AC_Zero_Pin) == 1){
 8000234:	2390      	movs	r3, #144	; 0x90
 8000236:	05db      	lsls	r3, r3, #23
 8000238:	2140      	movs	r1, #64	; 0x40
 800023a:	0018      	movs	r0, r3
 800023c:	f000 fda6 	bl	8000d8c <HAL_GPIO_ReadPin>
 8000240:	0003      	movs	r3, r0
 8000242:	2b01      	cmp	r3, #1
 8000244:	d110      	bne.n	8000268 <HAL_GPIO_EXTI_Callback+0x48>
			  HAL_GPIO_WritePin(ZeroCrosLed_GPIO_Port,ZeroCrosLed_Pin,1);
 8000246:	4b0f      	ldr	r3, [pc, #60]	; (8000284 <HAL_GPIO_EXTI_Callback+0x64>)
 8000248:	2201      	movs	r2, #1
 800024a:	2102      	movs	r1, #2
 800024c:	0018      	movs	r0, r3
 800024e:	f000 fdba 	bl	8000dc6 <HAL_GPIO_WritePin>
			  if (Flag == 0){
 8000252:	4b0d      	ldr	r3, [pc, #52]	; (8000288 <HAL_GPIO_EXTI_Callback+0x68>)
 8000254:	781b      	ldrb	r3, [r3, #0]
 8000256:	2b00      	cmp	r3, #0
 8000258:	d10f      	bne.n	800027a <HAL_GPIO_EXTI_Callback+0x5a>
				  TIM1->CNT =0;
 800025a:	4b0c      	ldr	r3, [pc, #48]	; (800028c <HAL_GPIO_EXTI_Callback+0x6c>)
 800025c:	2200      	movs	r2, #0
 800025e:	625a      	str	r2, [r3, #36]	; 0x24
				  Flag=1;
 8000260:	4b09      	ldr	r3, [pc, #36]	; (8000288 <HAL_GPIO_EXTI_Callback+0x68>)
 8000262:	2201      	movs	r2, #1
 8000264:	701a      	strb	r2, [r3, #0]
			  HAL_GPIO_WritePin(ZeroCrosLed_GPIO_Port,ZeroCrosLed_Pin,0);
			  Flag=0;

		  }
	}
}
 8000266:	e008      	b.n	800027a <HAL_GPIO_EXTI_Callback+0x5a>
			  HAL_GPIO_WritePin(ZeroCrosLed_GPIO_Port,ZeroCrosLed_Pin,0);
 8000268:	4b06      	ldr	r3, [pc, #24]	; (8000284 <HAL_GPIO_EXTI_Callback+0x64>)
 800026a:	2200      	movs	r2, #0
 800026c:	2102      	movs	r1, #2
 800026e:	0018      	movs	r0, r3
 8000270:	f000 fda9 	bl	8000dc6 <HAL_GPIO_WritePin>
			  Flag=0;
 8000274:	4b04      	ldr	r3, [pc, #16]	; (8000288 <HAL_GPIO_EXTI_Callback+0x68>)
 8000276:	2200      	movs	r2, #0
 8000278:	701a      	strb	r2, [r3, #0]
}
 800027a:	46c0      	nop			; (mov r8, r8)
 800027c:	46bd      	mov	sp, r7
 800027e:	b002      	add	sp, #8
 8000280:	bd80      	pop	{r7, pc}
 8000282:	46c0      	nop			; (mov r8, r8)
 8000284:	48001400 	.word	0x48001400
 8000288:	20000074 	.word	0x20000074
 800028c:	40012c00 	.word	0x40012c00

08000290 <HAL_TIM_OC_DelayElapsedCallback>:

void HAL_TIM_OC_DelayElapsedCallback(TIM_HandleTypeDef *htim){
 8000290:	b580      	push	{r7, lr}
 8000292:	b082      	sub	sp, #8
 8000294:	af00      	add	r7, sp, #0
 8000296:	6078      	str	r0, [r7, #4]
	if (htim == &htim1 && htim->Channel == HAL_TIM_ACTIVE_CHANNEL_1){
 8000298:	687a      	ldr	r2, [r7, #4]
 800029a:	4b15      	ldr	r3, [pc, #84]	; (80002f0 <HAL_TIM_OC_DelayElapsedCallback+0x60>)
 800029c:	429a      	cmp	r2, r3
 800029e:	d10b      	bne.n	80002b8 <HAL_TIM_OC_DelayElapsedCallback+0x28>
 80002a0:	687b      	ldr	r3, [r7, #4]
 80002a2:	7f1b      	ldrb	r3, [r3, #28]
 80002a4:	2b01      	cmp	r3, #1
 80002a6:	d107      	bne.n	80002b8 <HAL_TIM_OC_DelayElapsedCallback+0x28>
		HAL_GPIO_WritePin(TRIAC_OUT_GPIO_Port,TRIAC_OUT_Pin,0);
 80002a8:	2390      	movs	r3, #144	; 0x90
 80002aa:	05db      	lsls	r3, r3, #23
 80002ac:	2200      	movs	r2, #0
 80002ae:	2101      	movs	r1, #1
 80002b0:	0018      	movs	r0, r3
 80002b2:	f000 fd88 	bl	8000dc6 <HAL_GPIO_WritePin>
	} else if (htim == &htim1 && htim->Channel == HAL_TIM_ACTIVE_CHANNEL_2){
		HAL_GPIO_WritePin(TRIAC_OUT_GPIO_Port,TRIAC_OUT_Pin,1);
		TIM1->CCR2 = TriacValue + 100;
		TIM1->CCR1 = TriacValue ;
	}
}
 80002b6:	e017      	b.n	80002e8 <HAL_TIM_OC_DelayElapsedCallback+0x58>
	} else if (htim == &htim1 && htim->Channel == HAL_TIM_ACTIVE_CHANNEL_2){
 80002b8:	687a      	ldr	r2, [r7, #4]
 80002ba:	4b0d      	ldr	r3, [pc, #52]	; (80002f0 <HAL_TIM_OC_DelayElapsedCallback+0x60>)
 80002bc:	429a      	cmp	r2, r3
 80002be:	d113      	bne.n	80002e8 <HAL_TIM_OC_DelayElapsedCallback+0x58>
 80002c0:	687b      	ldr	r3, [r7, #4]
 80002c2:	7f1b      	ldrb	r3, [r3, #28]
 80002c4:	2b02      	cmp	r3, #2
 80002c6:	d10f      	bne.n	80002e8 <HAL_TIM_OC_DelayElapsedCallback+0x58>
		HAL_GPIO_WritePin(TRIAC_OUT_GPIO_Port,TRIAC_OUT_Pin,1);
 80002c8:	2390      	movs	r3, #144	; 0x90
 80002ca:	05db      	lsls	r3, r3, #23
 80002cc:	2201      	movs	r2, #1
 80002ce:	2101      	movs	r1, #1
 80002d0:	0018      	movs	r0, r3
 80002d2:	f000 fd78 	bl	8000dc6 <HAL_GPIO_WritePin>
		TIM1->CCR2 = TriacValue + 100;
 80002d6:	4b07      	ldr	r3, [pc, #28]	; (80002f4 <HAL_TIM_OC_DelayElapsedCallback+0x64>)
 80002d8:	681a      	ldr	r2, [r3, #0]
 80002da:	4b07      	ldr	r3, [pc, #28]	; (80002f8 <HAL_TIM_OC_DelayElapsedCallback+0x68>)
 80002dc:	3264      	adds	r2, #100	; 0x64
 80002de:	639a      	str	r2, [r3, #56]	; 0x38
		TIM1->CCR1 = TriacValue ;
 80002e0:	4a05      	ldr	r2, [pc, #20]	; (80002f8 <HAL_TIM_OC_DelayElapsedCallback+0x68>)
 80002e2:	4b04      	ldr	r3, [pc, #16]	; (80002f4 <HAL_TIM_OC_DelayElapsedCallback+0x64>)
 80002e4:	681b      	ldr	r3, [r3, #0]
 80002e6:	6353      	str	r3, [r2, #52]	; 0x34
}
 80002e8:	46c0      	nop			; (mov r8, r8)
 80002ea:	46bd      	mov	sp, r7
 80002ec:	b002      	add	sp, #8
 80002ee:	bd80      	pop	{r7, pc}
 80002f0:	20000028 	.word	0x20000028
 80002f4:	20000070 	.word	0x20000070
 80002f8:	40012c00 	.word	0x40012c00

080002fc <TriacControlSet>:

/*
 * val : max -> 1200 , min ->  0
 */
void TriacControlSet(uint32_t val) {
 80002fc:	b580      	push	{r7, lr}
 80002fe:	b082      	sub	sp, #8
 8000300:	af00      	add	r7, sp, #0
 8000302:	6078      	str	r0, [r7, #4]
	TriacValue = val;
 8000304:	4b03      	ldr	r3, [pc, #12]	; (8000314 <TriacControlSet+0x18>)
 8000306:	687a      	ldr	r2, [r7, #4]
 8000308:	601a      	str	r2, [r3, #0]
}
 800030a:	46c0      	nop			; (mov r8, r8)
 800030c:	46bd      	mov	sp, r7
 800030e:	b002      	add	sp, #8
 8000310:	bd80      	pop	{r7, pc}
 8000312:	46c0      	nop			; (mov r8, r8)
 8000314:	20000070 	.word	0x20000070

08000318 <main>:
/**
  * @brief  The application entry point.
  * @retval int
  */
int main(void)
{
 8000318:	b580      	push	{r7, lr}
 800031a:	af00      	add	r7, sp, #0
  /* USER CODE END 1 */

  /* MCU Configuration--------------------------------------------------------*/

  /* Reset of all peripherals, Initializes the Flash interface and the Systick. */
  HAL_Init();
 800031c:	f000 fa60 	bl	80007e0 <HAL_Init>
  /* USER CODE BEGIN Init */

  /* USER CODE END Init */

  /* Configure the system clock */
  SystemClock_Config();
 8000320:	f000 f82a 	bl	8000378 <SystemClock_Config>
  /* USER CODE BEGIN SysInit */

  /* USER CODE END SysInit */

  /* Initialize all configured peripherals */
  MX_GPIO_Init();
 8000324:	f000 f91e 	bl	8000564 <MX_GPIO_Init>
  MX_TIM1_Init();
 8000328:	f000 f872 	bl	8000410 <MX_TIM1_Init>
  /* USER CODE BEGIN 2 */
	HAL_TIMEx_OCN_Start_IT(&htim1, TIM_CHANNEL_1);
 800032c:	4b10      	ldr	r3, [pc, #64]	; (8000370 <main+0x58>)
 800032e:	2100      	movs	r1, #0
 8000330:	0018      	movs	r0, r3
 8000332:	f001 fe5b 	bl	8001fec <HAL_TIMEx_OCN_Start_IT>
	HAL_TIMEx_OCN_Start_IT(&htim1, TIM_CHANNEL_2);
 8000336:	4b0e      	ldr	r3, [pc, #56]	; (8000370 <main+0x58>)
 8000338:	2104      	movs	r1, #4
 800033a:	0018      	movs	r0, r3
 800033c:	f001 fe56 	bl	8001fec <HAL_TIMEx_OCN_Start_IT>
	HAL_TIM_Base_Start_IT(&htim1);
 8000340:	4b0b      	ldr	r3, [pc, #44]	; (8000370 <main+0x58>)
 8000342:	0018      	movs	r0, r3
 8000344:	f001 f9b6 	bl	80016b4 <HAL_TIM_Base_Start_IT>

  /* Infinite loop */
  /* USER CODE BEGIN WHILE */
  while (1)
  {
	  TriacControlSet(800);
 8000348:	23c8      	movs	r3, #200	; 0xc8
 800034a:	009b      	lsls	r3, r3, #2
 800034c:	0018      	movs	r0, r3
 800034e:	f7ff ffd5 	bl	80002fc <TriacControlSet>
	  HAL_Delay(5000);
 8000352:	4b08      	ldr	r3, [pc, #32]	; (8000374 <main+0x5c>)
 8000354:	0018      	movs	r0, r3
 8000356:	f000 faa7 	bl	80008a8 <HAL_Delay>
	  TriacControlSet(300);
 800035a:	2396      	movs	r3, #150	; 0x96
 800035c:	005b      	lsls	r3, r3, #1
 800035e:	0018      	movs	r0, r3
 8000360:	f7ff ffcc 	bl	80002fc <TriacControlSet>
	  HAL_Delay(5000);
 8000364:	4b03      	ldr	r3, [pc, #12]	; (8000374 <main+0x5c>)
 8000366:	0018      	movs	r0, r3
 8000368:	f000 fa9e 	bl	80008a8 <HAL_Delay>
	  TriacControlSet(800);
 800036c:	e7ec      	b.n	8000348 <main+0x30>
 800036e:	46c0      	nop			; (mov r8, r8)
 8000370:	20000028 	.word	0x20000028
 8000374:	00001388 	.word	0x00001388

08000378 <SystemClock_Config>:
/**
  * @brief System Clock Configuration
  * @retval None
  */
void SystemClock_Config(void)
{
 8000378:	b590      	push	{r4, r7, lr}
 800037a:	b091      	sub	sp, #68	; 0x44
 800037c:	af00      	add	r7, sp, #0
  RCC_OscInitTypeDef RCC_OscInitStruct = {0};
 800037e:	2410      	movs	r4, #16
 8000380:	193b      	adds	r3, r7, r4
 8000382:	0018      	movs	r0, r3
 8000384:	2330      	movs	r3, #48	; 0x30
 8000386:	001a      	movs	r2, r3
 8000388:	2100      	movs	r1, #0
 800038a:	f001 ffee 	bl	800236a <memset>
  RCC_ClkInitTypeDef RCC_ClkInitStruct = {0};
 800038e:	003b      	movs	r3, r7
 8000390:	0018      	movs	r0, r3
 8000392:	2310      	movs	r3, #16
 8000394:	001a      	movs	r2, r3
 8000396:	2100      	movs	r1, #0
 8000398:	f001 ffe7 	bl	800236a <memset>

  /** Initializes the RCC Oscillators according to the specified parameters
  * in the RCC_OscInitTypeDef structure.
  */
  RCC_OscInitStruct.OscillatorType = RCC_OSCILLATORTYPE_HSI;
 800039c:	0021      	movs	r1, r4
 800039e:	187b      	adds	r3, r7, r1
 80003a0:	2202      	movs	r2, #2
 80003a2:	601a      	str	r2, [r3, #0]
  RCC_OscInitStruct.HSIState = RCC_HSI_ON;
 80003a4:	187b      	adds	r3, r7, r1
 80003a6:	2201      	movs	r2, #1
 80003a8:	60da      	str	r2, [r3, #12]
  RCC_OscInitStruct.HSICalibrationValue = RCC_HSICALIBRATION_DEFAULT;
 80003aa:	187b      	adds	r3, r7, r1
 80003ac:	2210      	movs	r2, #16
 80003ae:	611a      	str	r2, [r3, #16]
  RCC_OscInitStruct.PLL.PLLState = RCC_PLL_ON;
 80003b0:	187b      	adds	r3, r7, r1
 80003b2:	2202      	movs	r2, #2
 80003b4:	621a      	str	r2, [r3, #32]
  RCC_OscInitStruct.PLL.PLLSource = RCC_PLLSOURCE_HSI;
 80003b6:	187b      	adds	r3, r7, r1
 80003b8:	2200      	movs	r2, #0
 80003ba:	625a      	str	r2, [r3, #36]	; 0x24
  RCC_OscInitStruct.PLL.PLLMUL = RCC_PLL_MUL12;
 80003bc:	187b      	adds	r3, r7, r1
 80003be:	22a0      	movs	r2, #160	; 0xa0
 80003c0:	0392      	lsls	r2, r2, #14
 80003c2:	629a      	str	r2, [r3, #40]	; 0x28
  RCC_OscInitStruct.PLL.PREDIV = RCC_PREDIV_DIV1;
 80003c4:	187b      	adds	r3, r7, r1
 80003c6:	2200      	movs	r2, #0
 80003c8:	62da      	str	r2, [r3, #44]	; 0x2c
  if (HAL_RCC_OscConfig(&RCC_OscInitStruct) != HAL_OK)
 80003ca:	187b      	adds	r3, r7, r1
 80003cc:	0018      	movs	r0, r3
 80003ce:	f000 fd33 	bl	8000e38 <HAL_RCC_OscConfig>
 80003d2:	1e03      	subs	r3, r0, #0
 80003d4:	d001      	beq.n	80003da <SystemClock_Config+0x62>
  {
    Error_Handler();
 80003d6:	f000 f941 	bl	800065c <Error_Handler>
  }

  /** Initializes the CPU, AHB and APB buses clocks
  */
  RCC_ClkInitStruct.ClockType = RCC_CLOCKTYPE_HCLK|RCC_CLOCKTYPE_SYSCLK
 80003da:	003b      	movs	r3, r7
 80003dc:	2207      	movs	r2, #7
 80003de:	601a      	str	r2, [r3, #0]
                              |RCC_CLOCKTYPE_PCLK1;
  RCC_ClkInitStruct.SYSCLKSource = RCC_SYSCLKSOURCE_PLLCLK;
 80003e0:	003b      	movs	r3, r7
 80003e2:	2202      	movs	r2, #2
 80003e4:	605a      	str	r2, [r3, #4]
  RCC_ClkInitStruct.AHBCLKDivider = RCC_SYSCLK_DIV1;
 80003e6:	003b      	movs	r3, r7
 80003e8:	2200      	movs	r2, #0
 80003ea:	609a      	str	r2, [r3, #8]
  RCC_ClkInitStruct.APB1CLKDivider = RCC_HCLK_DIV2;
 80003ec:	003b      	movs	r3, r7
 80003ee:	2280      	movs	r2, #128	; 0x80
 80003f0:	00d2      	lsls	r2, r2, #3
 80003f2:	60da      	str	r2, [r3, #12]

  if (HAL_RCC_ClockConfig(&RCC_ClkInitStruct, FLASH_LATENCY_1) != HAL_OK)
 80003f4:	003b      	movs	r3, r7
 80003f6:	2101      	movs	r1, #1
 80003f8:	0018      	movs	r0, r3
 80003fa:	f001 f837 	bl	800146c <HAL_RCC_ClockConfig>
 80003fe:	1e03      	subs	r3, r0, #0
 8000400:	d001      	beq.n	8000406 <SystemClock_Config+0x8e>
  {
    Error_Handler();
 8000402:	f000 f92b 	bl	800065c <Error_Handler>
  }
}
 8000406:	46c0      	nop			; (mov r8, r8)
 8000408:	46bd      	mov	sp, r7
 800040a:	b011      	add	sp, #68	; 0x44
 800040c:	bd90      	pop	{r4, r7, pc}
	...

08000410 <MX_TIM1_Init>:
  * @brief TIM1 Initialization Function
  * @param None
  * @retval None
  */
static void MX_TIM1_Init(void)
{
 8000410:	b580      	push	{r7, lr}
 8000412:	b092      	sub	sp, #72	; 0x48
 8000414:	af00      	add	r7, sp, #0

  /* USER CODE BEGIN TIM1_Init 0 */

  /* USER CODE END TIM1_Init 0 */

  TIM_MasterConfigTypeDef sMasterConfig = {0};
 8000416:	2340      	movs	r3, #64	; 0x40
 8000418:	18fb      	adds	r3, r7, r3
 800041a:	0018      	movs	r0, r3
 800041c:	2308      	movs	r3, #8
 800041e:	001a      	movs	r2, r3
 8000420:	2100      	movs	r1, #0
 8000422:	f001 ffa2 	bl	800236a <memset>
  TIM_OC_InitTypeDef sConfigOC = {0};
 8000426:	2324      	movs	r3, #36	; 0x24
 8000428:	18fb      	adds	r3, r7, r3
 800042a:	0018      	movs	r0, r3
 800042c:	231c      	movs	r3, #28
 800042e:	001a      	movs	r2, r3
 8000430:	2100      	movs	r1, #0
 8000432:	f001 ff9a 	bl	800236a <memset>
  TIM_BreakDeadTimeConfigTypeDef sBreakDeadTimeConfig = {0};
 8000436:	1d3b      	adds	r3, r7, #4
 8000438:	0018      	movs	r0, r3
 800043a:	2320      	movs	r3, #32
 800043c:	001a      	movs	r2, r3
 800043e:	2100      	movs	r1, #0
 8000440:	f001 ff93 	bl	800236a <memset>

  /* USER CODE BEGIN TIM1_Init 1 */

  /* USER CODE END TIM1_Init 1 */
  htim1.Instance = TIM1;
 8000444:	4b43      	ldr	r3, [pc, #268]	; (8000554 <MX_TIM1_Init+0x144>)
 8000446:	4a44      	ldr	r2, [pc, #272]	; (8000558 <MX_TIM1_Init+0x148>)
 8000448:	601a      	str	r2, [r3, #0]
  htim1.Init.Prescaler = 360-1;
 800044a:	4b42      	ldr	r3, [pc, #264]	; (8000554 <MX_TIM1_Init+0x144>)
 800044c:	2268      	movs	r2, #104	; 0x68
 800044e:	32ff      	adds	r2, #255	; 0xff
 8000450:	605a      	str	r2, [r3, #4]
  htim1.Init.CounterMode = TIM_COUNTERMODE_UP;
 8000452:	4b40      	ldr	r3, [pc, #256]	; (8000554 <MX_TIM1_Init+0x144>)
 8000454:	2200      	movs	r2, #0
 8000456:	609a      	str	r2, [r3, #8]
  htim1.Init.Period = 65535;
 8000458:	4b3e      	ldr	r3, [pc, #248]	; (8000554 <MX_TIM1_Init+0x144>)
 800045a:	4a40      	ldr	r2, [pc, #256]	; (800055c <MX_TIM1_Init+0x14c>)
 800045c:	60da      	str	r2, [r3, #12]
  htim1.Init.ClockDivision = TIM_CLOCKDIVISION_DIV1;
 800045e:	4b3d      	ldr	r3, [pc, #244]	; (8000554 <MX_TIM1_Init+0x144>)
 8000460:	2200      	movs	r2, #0
 8000462:	611a      	str	r2, [r3, #16]
  htim1.Init.RepetitionCounter = 0;
 8000464:	4b3b      	ldr	r3, [pc, #236]	; (8000554 <MX_TIM1_Init+0x144>)
 8000466:	2200      	movs	r2, #0
 8000468:	615a      	str	r2, [r3, #20]
  htim1.Init.AutoReloadPreload = TIM_AUTORELOAD_PRELOAD_DISABLE;
 800046a:	4b3a      	ldr	r3, [pc, #232]	; (8000554 <MX_TIM1_Init+0x144>)
 800046c:	2200      	movs	r2, #0
 800046e:	619a      	str	r2, [r3, #24]
  if (HAL_TIM_OC_Init(&htim1) != HAL_OK)
 8000470:	4b38      	ldr	r3, [pc, #224]	; (8000554 <MX_TIM1_Init+0x144>)
 8000472:	0018      	movs	r0, r3
 8000474:	f001 f96a 	bl	800174c <HAL_TIM_OC_Init>
 8000478:	1e03      	subs	r3, r0, #0
 800047a:	d001      	beq.n	8000480 <MX_TIM1_Init+0x70>
  {
    Error_Handler();
 800047c:	f000 f8ee 	bl	800065c <Error_Handler>
  }
  sMasterConfig.MasterOutputTrigger = TIM_TRGO_RESET;
 8000480:	2140      	movs	r1, #64	; 0x40
 8000482:	187b      	adds	r3, r7, r1
 8000484:	2200      	movs	r2, #0
 8000486:	601a      	str	r2, [r3, #0]
  sMasterConfig.MasterSlaveMode = TIM_MASTERSLAVEMODE_DISABLE;
 8000488:	187b      	adds	r3, r7, r1
 800048a:	2200      	movs	r2, #0
 800048c:	605a      	str	r2, [r3, #4]
  if (HAL_TIMEx_MasterConfigSynchronization(&htim1, &sMasterConfig) != HAL_OK)
 800048e:	187a      	adds	r2, r7, r1
 8000490:	4b30      	ldr	r3, [pc, #192]	; (8000554 <MX_TIM1_Init+0x144>)
 8000492:	0011      	movs	r1, r2
 8000494:	0018      	movs	r0, r3
 8000496:	f001 fe7f 	bl	8002198 <HAL_TIMEx_MasterConfigSynchronization>
 800049a:	1e03      	subs	r3, r0, #0
 800049c:	d001      	beq.n	80004a2 <MX_TIM1_Init+0x92>
  {
    Error_Handler();
 800049e:	f000 f8dd 	bl	800065c <Error_Handler>
  }
  sConfigOC.OCMode = TIM_OCMODE_TIMING;
 80004a2:	2124      	movs	r1, #36	; 0x24
 80004a4:	187b      	adds	r3, r7, r1
 80004a6:	2200      	movs	r2, #0
 80004a8:	601a      	str	r2, [r3, #0]
  sConfigOC.Pulse = 1000;
 80004aa:	187b      	adds	r3, r7, r1
 80004ac:	22fa      	movs	r2, #250	; 0xfa
 80004ae:	0092      	lsls	r2, r2, #2
 80004b0:	605a      	str	r2, [r3, #4]
  sConfigOC.OCPolarity = TIM_OCPOLARITY_HIGH;
 80004b2:	187b      	adds	r3, r7, r1
 80004b4:	2200      	movs	r2, #0
 80004b6:	609a      	str	r2, [r3, #8]
  sConfigOC.OCNPolarity = TIM_OCNPOLARITY_HIGH;
 80004b8:	187b      	adds	r3, r7, r1
 80004ba:	2200      	movs	r2, #0
 80004bc:	60da      	str	r2, [r3, #12]
  sConfigOC.OCFastMode = TIM_OCFAST_DISABLE;
 80004be:	187b      	adds	r3, r7, r1
 80004c0:	2200      	movs	r2, #0
 80004c2:	611a      	str	r2, [r3, #16]
  sConfigOC.OCIdleState = TIM_OCIDLESTATE_RESET;
 80004c4:	187b      	adds	r3, r7, r1
 80004c6:	2200      	movs	r2, #0
 80004c8:	615a      	str	r2, [r3, #20]
  sConfigOC.OCNIdleState = TIM_OCNIDLESTATE_RESET;
 80004ca:	187b      	adds	r3, r7, r1
 80004cc:	2200      	movs	r2, #0
 80004ce:	619a      	str	r2, [r3, #24]
  if (HAL_TIM_OC_ConfigChannel(&htim1, &sConfigOC, TIM_CHANNEL_1) != HAL_OK)
 80004d0:	1879      	adds	r1, r7, r1
 80004d2:	4b20      	ldr	r3, [pc, #128]	; (8000554 <MX_TIM1_Init+0x144>)
 80004d4:	2200      	movs	r2, #0
 80004d6:	0018      	movs	r0, r3
 80004d8:	f001 fa9e 	bl	8001a18 <HAL_TIM_OC_ConfigChannel>
 80004dc:	1e03      	subs	r3, r0, #0
 80004de:	d001      	beq.n	80004e4 <MX_TIM1_Init+0xd4>
  {
    Error_Handler();
 80004e0:	f000 f8bc 	bl	800065c <Error_Handler>
  }
  sConfigOC.Pulse = 1100;
 80004e4:	2124      	movs	r1, #36	; 0x24
 80004e6:	187b      	adds	r3, r7, r1
 80004e8:	4a1d      	ldr	r2, [pc, #116]	; (8000560 <MX_TIM1_Init+0x150>)
 80004ea:	605a      	str	r2, [r3, #4]
  if (HAL_TIM_OC_ConfigChannel(&htim1, &sConfigOC, TIM_CHANNEL_2) != HAL_OK)
 80004ec:	1879      	adds	r1, r7, r1
 80004ee:	4b19      	ldr	r3, [pc, #100]	; (8000554 <MX_TIM1_Init+0x144>)
 80004f0:	2204      	movs	r2, #4
 80004f2:	0018      	movs	r0, r3
 80004f4:	f001 fa90 	bl	8001a18 <HAL_TIM_OC_ConfigChannel>
 80004f8:	1e03      	subs	r3, r0, #0
 80004fa:	d001      	beq.n	8000500 <MX_TIM1_Init+0xf0>
  {
    Error_Handler();
 80004fc:	f000 f8ae 	bl	800065c <Error_Handler>
  }
  sBreakDeadTimeConfig.OffStateRunMode = TIM_OSSR_ENABLE;
 8000500:	1d3b      	adds	r3, r7, #4
 8000502:	2280      	movs	r2, #128	; 0x80
 8000504:	0112      	lsls	r2, r2, #4
 8000506:	601a      	str	r2, [r3, #0]
  sBreakDeadTimeConfig.OffStateIDLEMode = TIM_OSSI_ENABLE;
 8000508:	1d3b      	adds	r3, r7, #4
 800050a:	2280      	movs	r2, #128	; 0x80
 800050c:	00d2      	lsls	r2, r2, #3
 800050e:	605a      	str	r2, [r3, #4]
  sBreakDeadTimeConfig.LockLevel = TIM_LOCKLEVEL_1;
 8000510:	1d3b      	adds	r3, r7, #4
 8000512:	2280      	movs	r2, #128	; 0x80
 8000514:	0052      	lsls	r2, r2, #1
 8000516:	609a      	str	r2, [r3, #8]
  sBreakDeadTimeConfig.DeadTime = 0;
 8000518:	1d3b      	adds	r3, r7, #4
 800051a:	2200      	movs	r2, #0
 800051c:	60da      	str	r2, [r3, #12]
  sBreakDeadTimeConfig.BreakState = TIM_BREAK_ENABLE;
 800051e:	1d3b      	adds	r3, r7, #4
 8000520:	2280      	movs	r2, #128	; 0x80
 8000522:	0152      	lsls	r2, r2, #5
 8000524:	611a      	str	r2, [r3, #16]
  sBreakDeadTimeConfig.BreakPolarity = TIM_BREAKPOLARITY_HIGH;
 8000526:	1d3b      	adds	r3, r7, #4
 8000528:	2280      	movs	r2, #128	; 0x80
 800052a:	0192      	lsls	r2, r2, #6
 800052c:	615a      	str	r2, [r3, #20]
  sBreakDeadTimeConfig.AutomaticOutput = TIM_AUTOMATICOUTPUT_ENABLE;
 800052e:	1d3b      	adds	r3, r7, #4
 8000530:	2280      	movs	r2, #128	; 0x80
 8000532:	01d2      	lsls	r2, r2, #7
 8000534:	61da      	str	r2, [r3, #28]
  if (HAL_TIMEx_ConfigBreakDeadTime(&htim1, &sBreakDeadTimeConfig) != HAL_OK)
 8000536:	1d3a      	adds	r2, r7, #4
 8000538:	4b06      	ldr	r3, [pc, #24]	; (8000554 <MX_TIM1_Init+0x144>)
 800053a:	0011      	movs	r1, r2
 800053c:	0018      	movs	r0, r3
 800053e:	f001 fe83 	bl	8002248 <HAL_TIMEx_ConfigBreakDeadTime>
 8000542:	1e03      	subs	r3, r0, #0
 8000544:	d001      	beq.n	800054a <MX_TIM1_Init+0x13a>
  {
    Error_Handler();
 8000546:	f000 f889 	bl	800065c <Error_Handler>
  }
  /* USER CODE BEGIN TIM1_Init 2 */

  /* USER CODE END TIM1_Init 2 */

}
 800054a:	46c0      	nop			; (mov r8, r8)
 800054c:	46bd      	mov	sp, r7
 800054e:	b012      	add	sp, #72	; 0x48
 8000550:	bd80      	pop	{r7, pc}
 8000552:	46c0      	nop			; (mov r8, r8)
 8000554:	20000028 	.word	0x20000028
 8000558:	40012c00 	.word	0x40012c00
 800055c:	0000ffff 	.word	0x0000ffff
 8000560:	0000044c 	.word	0x0000044c

08000564 <MX_GPIO_Init>:
  * @brief GPIO Initialization Function
  * @param None
  * @retval None
  */
static void MX_GPIO_Init(void)
{
 8000564:	b590      	push	{r4, r7, lr}
 8000566:	b089      	sub	sp, #36	; 0x24
 8000568:	af00      	add	r7, sp, #0
  GPIO_InitTypeDef GPIO_InitStruct = {0};
 800056a:	240c      	movs	r4, #12
 800056c:	193b      	adds	r3, r7, r4
 800056e:	0018      	movs	r0, r3
 8000570:	2314      	movs	r3, #20
 8000572:	001a      	movs	r2, r3
 8000574:	2100      	movs	r1, #0
 8000576:	f001 fef8 	bl	800236a <memset>
/* USER CODE BEGIN MX_GPIO_Init_1 */
/* USER CODE END MX_GPIO_Init_1 */

  /* GPIO Ports Clock Enable */
  __HAL_RCC_GPIOF_CLK_ENABLE();
 800057a:	4b36      	ldr	r3, [pc, #216]	; (8000654 <MX_GPIO_Init+0xf0>)
 800057c:	695a      	ldr	r2, [r3, #20]
 800057e:	4b35      	ldr	r3, [pc, #212]	; (8000654 <MX_GPIO_Init+0xf0>)
 8000580:	2180      	movs	r1, #128	; 0x80
 8000582:	03c9      	lsls	r1, r1, #15
 8000584:	430a      	orrs	r2, r1
 8000586:	615a      	str	r2, [r3, #20]
 8000588:	4b32      	ldr	r3, [pc, #200]	; (8000654 <MX_GPIO_Init+0xf0>)
 800058a:	695a      	ldr	r2, [r3, #20]
 800058c:	2380      	movs	r3, #128	; 0x80
 800058e:	03db      	lsls	r3, r3, #15
 8000590:	4013      	ands	r3, r2
 8000592:	60bb      	str	r3, [r7, #8]
 8000594:	68bb      	ldr	r3, [r7, #8]
  __HAL_RCC_GPIOA_CLK_ENABLE();
 8000596:	4b2f      	ldr	r3, [pc, #188]	; (8000654 <MX_GPIO_Init+0xf0>)
 8000598:	695a      	ldr	r2, [r3, #20]
 800059a:	4b2e      	ldr	r3, [pc, #184]	; (8000654 <MX_GPIO_Init+0xf0>)
 800059c:	2180      	movs	r1, #128	; 0x80
 800059e:	0289      	lsls	r1, r1, #10
 80005a0:	430a      	orrs	r2, r1
 80005a2:	615a      	str	r2, [r3, #20]
 80005a4:	4b2b      	ldr	r3, [pc, #172]	; (8000654 <MX_GPIO_Init+0xf0>)
 80005a6:	695a      	ldr	r2, [r3, #20]
 80005a8:	2380      	movs	r3, #128	; 0x80
 80005aa:	029b      	lsls	r3, r3, #10
 80005ac:	4013      	ands	r3, r2
 80005ae:	607b      	str	r3, [r7, #4]
 80005b0:	687b      	ldr	r3, [r7, #4]

  /*Configure GPIO pin Output Level */
  HAL_GPIO_WritePin(ZeroCrosLed_GPIO_Port, ZeroCrosLed_Pin, GPIO_PIN_RESET);
 80005b2:	4b29      	ldr	r3, [pc, #164]	; (8000658 <MX_GPIO_Init+0xf4>)
 80005b4:	2200      	movs	r2, #0
 80005b6:	2102      	movs	r1, #2
 80005b8:	0018      	movs	r0, r3
 80005ba:	f000 fc04 	bl	8000dc6 <HAL_GPIO_WritePin>

  /*Configure GPIO pin Output Level */
  HAL_GPIO_WritePin(TRIAC_OUT_GPIO_Port, TRIAC_OUT_Pin, GPIO_PIN_RESET);
 80005be:	2390      	movs	r3, #144	; 0x90
 80005c0:	05db      	lsls	r3, r3, #23
 80005c2:	2200      	movs	r2, #0
 80005c4:	2101      	movs	r1, #1
 80005c6:	0018      	movs	r0, r3
 80005c8:	f000 fbfd 	bl	8000dc6 <HAL_GPIO_WritePin>

  /*Configure GPIO pin : ZeroCrosLed_Pin */
  GPIO_InitStruct.Pin = ZeroCrosLed_Pin;
 80005cc:	193b      	adds	r3, r7, r4
 80005ce:	2202      	movs	r2, #2
 80005d0:	601a      	str	r2, [r3, #0]
  GPIO_InitStruct.Mode = GPIO_MODE_OUTPUT_PP;
 80005d2:	193b      	adds	r3, r7, r4
 80005d4:	2201      	movs	r2, #1
 80005d6:	605a      	str	r2, [r3, #4]
  GPIO_InitStruct.Pull = GPIO_NOPULL;
 80005d8:	193b      	adds	r3, r7, r4
 80005da:	2200      	movs	r2, #0
 80005dc:	609a      	str	r2, [r3, #8]
  GPIO_InitStruct.Speed = GPIO_SPEED_FREQ_LOW;
 80005de:	193b      	adds	r3, r7, r4
 80005e0:	2200      	movs	r2, #0
 80005e2:	60da      	str	r2, [r3, #12]
  HAL_GPIO_Init(ZeroCrosLed_GPIO_Port, &GPIO_InitStruct);
 80005e4:	193b      	adds	r3, r7, r4
 80005e6:	4a1c      	ldr	r2, [pc, #112]	; (8000658 <MX_GPIO_Init+0xf4>)
 80005e8:	0019      	movs	r1, r3
 80005ea:	0010      	movs	r0, r2
 80005ec:	f000 fa5e 	bl	8000aac <HAL_GPIO_Init>

  /*Configure GPIO pin : TRIAC_OUT_Pin */
  GPIO_InitStruct.Pin = TRIAC_OUT_Pin;
 80005f0:	193b      	adds	r3, r7, r4
 80005f2:	2201      	movs	r2, #1
 80005f4:	601a      	str	r2, [r3, #0]
  GPIO_InitStruct.Mode = GPIO_MODE_OUTPUT_PP;
 80005f6:	193b      	adds	r3, r7, r4
 80005f8:	2201      	movs	r2, #1
 80005fa:	605a      	str	r2, [r3, #4]
  GPIO_InitStruct.Pull = GPIO_NOPULL;
 80005fc:	193b      	adds	r3, r7, r4
 80005fe:	2200      	movs	r2, #0
 8000600:	609a      	str	r2, [r3, #8]
  GPIO_InitStruct.Speed = GPIO_SPEED_FREQ_LOW;
 8000602:	193b      	adds	r3, r7, r4
 8000604:	2200      	movs	r2, #0
 8000606:	60da      	str	r2, [r3, #12]
  HAL_GPIO_Init(TRIAC_OUT_GPIO_Port, &GPIO_InitStruct);
 8000608:	193a      	adds	r2, r7, r4
 800060a:	2390      	movs	r3, #144	; 0x90
 800060c:	05db      	lsls	r3, r3, #23
 800060e:	0011      	movs	r1, r2
 8000610:	0018      	movs	r0, r3
 8000612:	f000 fa4b 	bl	8000aac <HAL_GPIO_Init>

  /*Configure GPIO pin : AC_Zero_Pin */
  GPIO_InitStruct.Pin = AC_Zero_Pin;
 8000616:	0021      	movs	r1, r4
 8000618:	187b      	adds	r3, r7, r1
 800061a:	2240      	movs	r2, #64	; 0x40
 800061c:	601a      	str	r2, [r3, #0]
  GPIO_InitStruct.Mode = GPIO_MODE_IT_RISING_FALLING;
 800061e:	187b      	adds	r3, r7, r1
 8000620:	22c4      	movs	r2, #196	; 0xc4
 8000622:	0392      	lsls	r2, r2, #14
 8000624:	605a      	str	r2, [r3, #4]
  GPIO_InitStruct.Pull = GPIO_NOPULL;
 8000626:	187b      	adds	r3, r7, r1
 8000628:	2200      	movs	r2, #0
 800062a:	609a      	str	r2, [r3, #8]
  HAL_GPIO_Init(AC_Zero_GPIO_Port, &GPIO_InitStruct);
 800062c:	187a      	adds	r2, r7, r1
 800062e:	2390      	movs	r3, #144	; 0x90
 8000630:	05db      	lsls	r3, r3, #23
 8000632:	0011      	movs	r1, r2
 8000634:	0018      	movs	r0, r3
 8000636:	f000 fa39 	bl	8000aac <HAL_GPIO_Init>

  /* EXTI interrupt init*/
  HAL_NVIC_SetPriority(EXTI4_15_IRQn, 0, 0);
 800063a:	2200      	movs	r2, #0
 800063c:	2100      	movs	r1, #0
 800063e:	2007      	movs	r0, #7
 8000640:	f000 fa02 	bl	8000a48 <HAL_NVIC_SetPriority>
  HAL_NVIC_EnableIRQ(EXTI4_15_IRQn);
 8000644:	2007      	movs	r0, #7
 8000646:	f000 fa14 	bl	8000a72 <HAL_NVIC_EnableIRQ>

/* USER CODE BEGIN MX_GPIO_Init_2 */
/* USER CODE END MX_GPIO_Init_2 */
}
 800064a:	46c0      	nop			; (mov r8, r8)
 800064c:	46bd      	mov	sp, r7
 800064e:	b009      	add	sp, #36	; 0x24
 8000650:	bd90      	pop	{r4, r7, pc}
 8000652:	46c0      	nop			; (mov r8, r8)
 8000654:	40021000 	.word	0x40021000
 8000658:	48001400 	.word	0x48001400

0800065c <Error_Handler>:
/**
  * @brief  This function is executed in case of error occurrence.
  * @retval None
  */
void Error_Handler(void)
{
 800065c:	b580      	push	{r7, lr}
 800065e:	af00      	add	r7, sp, #0
  \details Disables IRQ interrupts by setting the I-bit in the CPSR.
           Can only be executed in Privileged modes.
 */
__STATIC_FORCEINLINE void __disable_irq(void)
{
  __ASM volatile ("cpsid i" : : : "memory");
 8000660:	b672      	cpsid	i
}
 8000662:	46c0      	nop			; (mov r8, r8)
  /* USER CODE BEGIN Error_Handler_Debug */
  /* User can add his own implementation to report the HAL error return state */
  __disable_irq();
  while (1)
 8000664:	e7fe      	b.n	8000664 <Error_Handler+0x8>
	...

08000668 <HAL_MspInit>:
 8000668:	b580      	push	{r7, lr}
 800066a:	b082      	sub	sp, #8
 800066c:	af00      	add	r7, sp, #0
 800066e:	4b0f      	ldr	r3, [pc, #60]	; (80006ac <HAL_MspInit+0x44>)
 8000670:	699a      	ldr	r2, [r3, #24]
 8000672:	4b0e      	ldr	r3, [pc, #56]	; (80006ac <HAL_MspInit+0x44>)
 8000674:	2101      	movs	r1, #1
 8000676:	430a      	orrs	r2, r1
 8000678:	619a      	str	r2, [r3, #24]
 800067a:	4b0c      	ldr	r3, [pc, #48]	; (80006ac <HAL_MspInit+0x44>)
 800067c:	699b      	ldr	r3, [r3, #24]
 800067e:	2201      	movs	r2, #1
 8000680:	4013      	ands	r3, r2
 8000682:	607b      	str	r3, [r7, #4]
 8000684:	687b      	ldr	r3, [r7, #4]
 8000686:	4b09      	ldr	r3, [pc, #36]	; (80006ac <HAL_MspInit+0x44>)
 8000688:	69da      	ldr	r2, [r3, #28]
 800068a:	4b08      	ldr	r3, [pc, #32]	; (80006ac <HAL_MspInit+0x44>)
 800068c:	2180      	movs	r1, #128	; 0x80
 800068e:	0549      	lsls	r1, r1, #21
 8000690:	430a      	orrs	r2, r1
 8000692:	61da      	str	r2, [r3, #28]
 8000694:	4b05      	ldr	r3, [pc, #20]	; (80006ac <HAL_MspInit+0x44>)
 8000696:	69da      	ldr	r2, [r3, #28]
 8000698:	2380      	movs	r3, #128	; 0x80
 800069a:	055b      	lsls	r3, r3, #21
 800069c:	4013      	ands	r3, r2
 800069e:	603b      	str	r3, [r7, #0]
 80006a0:	683b      	ldr	r3, [r7, #0]
 80006a2:	46c0      	nop			; (mov r8, r8)
 80006a4:	46bd      	mov	sp, r7
 80006a6:	b002      	add	sp, #8
 80006a8:	bd80      	pop	{r7, pc}
 80006aa:	46c0      	nop			; (mov r8, r8)
 80006ac:	40021000 	.word	0x40021000

080006b0 <HAL_TIM_OC_MspInit>:
 80006b0:	b580      	push	{r7, lr}
 80006b2:	b084      	sub	sp, #16
 80006b4:	af00      	add	r7, sp, #0
 80006b6:	6078      	str	r0, [r7, #4]
 80006b8:	687b      	ldr	r3, [r7, #4]
 80006ba:	681b      	ldr	r3, [r3, #0]
 80006bc:	4a12      	ldr	r2, [pc, #72]	; (8000708 <HAL_TIM_OC_MspInit+0x58>)
 80006be:	4293      	cmp	r3, r2
 80006c0:	d11d      	bne.n	80006fe <HAL_TIM_OC_MspInit+0x4e>
 80006c2:	4b12      	ldr	r3, [pc, #72]	; (800070c <HAL_TIM_OC_MspInit+0x5c>)
 80006c4:	699a      	ldr	r2, [r3, #24]
 80006c6:	4b11      	ldr	r3, [pc, #68]	; (800070c <HAL_TIM_OC_MspInit+0x5c>)
 80006c8:	2180      	movs	r1, #128	; 0x80
 80006ca:	0109      	lsls	r1, r1, #4
 80006cc:	430a      	orrs	r2, r1
 80006ce:	619a      	str	r2, [r3, #24]
 80006d0:	4b0e      	ldr	r3, [pc, #56]	; (800070c <HAL_TIM_OC_MspInit+0x5c>)
 80006d2:	699a      	ldr	r2, [r3, #24]
 80006d4:	2380      	movs	r3, #128	; 0x80
 80006d6:	011b      	lsls	r3, r3, #4
 80006d8:	4013      	ands	r3, r2
 80006da:	60fb      	str	r3, [r7, #12]
 80006dc:	68fb      	ldr	r3, [r7, #12]
 80006de:	2200      	movs	r2, #0
 80006e0:	2100      	movs	r1, #0
 80006e2:	200d      	movs	r0, #13
 80006e4:	f000 f9b0 	bl	8000a48 <HAL_NVIC_SetPriority>
 80006e8:	200d      	movs	r0, #13
 80006ea:	f000 f9c2 	bl	8000a72 <HAL_NVIC_EnableIRQ>
 80006ee:	2200      	movs	r2, #0
 80006f0:	2100      	movs	r1, #0
 80006f2:	200e      	movs	r0, #14
 80006f4:	f000 f9a8 	bl	8000a48 <HAL_NVIC_SetPriority>
 80006f8:	200e      	movs	r0, #14
 80006fa:	f000 f9ba 	bl	8000a72 <HAL_NVIC_EnableIRQ>
 80006fe:	46c0      	nop			; (mov r8, r8)
 8000700:	46bd      	mov	sp, r7
 8000702:	b004      	add	sp, #16
 8000704:	bd80      	pop	{r7, pc}
 8000706:	46c0      	nop			; (mov r8, r8)
 8000708:	40012c00 	.word	0x40012c00
 800070c:	40021000 	.word	0x40021000

08000710 <NMI_Handler>:
 8000710:	b580      	push	{r7, lr}
 8000712:	af00      	add	r7, sp, #0
 8000714:	e7fe      	b.n	8000714 <NMI_Handler+0x4>

08000716 <HardFault_Handler>:
 8000716:	b580      	push	{r7, lr}
 8000718:	af00      	add	r7, sp, #0
 800071a:	e7fe      	b.n	800071a <HardFault_Handler+0x4>

0800071c <SVC_Handler>:
 800071c:	b580      	push	{r7, lr}
 800071e:	af00      	add	r7, sp, #0
 8000720:	46c0      	nop			; (mov r8, r8)
 8000722:	46bd      	mov	sp, r7
 8000724:	bd80      	pop	{r7, pc}

08000726 <PendSV_Handler>:
 8000726:	b580      	push	{r7, lr}
 8000728:	af00      	add	r7, sp, #0
 800072a:	46c0      	nop			; (mov r8, r8)
 800072c:	46bd      	mov	sp, r7
 800072e:	bd80      	pop	{r7, pc}

08000730 <SysTick_Handler>:
 8000730:	b580      	push	{r7, lr}
 8000732:	af00      	add	r7, sp, #0
 8000734:	f000 f89c 	bl	8000870 <HAL_IncTick>
 8000738:	46c0      	nop			; (mov r8, r8)
 800073a:	46bd      	mov	sp, r7
 800073c:	bd80      	pop	{r7, pc}

0800073e <EXTI4_15_IRQHandler>:
 800073e:	b580      	push	{r7, lr}
 8000740:	af00      	add	r7, sp, #0
 8000742:	2040      	movs	r0, #64	; 0x40
 8000744:	f000 fb5c 	bl	8000e00 <HAL_GPIO_EXTI_IRQHandler>
 8000748:	46c0      	nop			; (mov r8, r8)
 800074a:	46bd      	mov	sp, r7
 800074c:	bd80      	pop	{r7, pc}
	...

08000750 <TIM1_BRK_UP_TRG_COM_IRQHandler>:
 8000750:	b580      	push	{r7, lr}
 8000752:	af00      	add	r7, sp, #0
 8000754:	4b03      	ldr	r3, [pc, #12]	; (8000764 <TIM1_BRK_UP_TRG_COM_IRQHandler+0x14>)
 8000756:	0018      	movs	r0, r3
 8000758:	f001 f848 	bl	80017ec <HAL_TIM_IRQHandler>
 800075c:	46c0      	nop			; (mov r8, r8)
 800075e:	46bd      	mov	sp, r7
 8000760:	bd80      	pop	{r7, pc}
 8000762:	46c0      	nop			; (mov r8, r8)
 8000764:	20000028 	.word	0x20000028

08000768 <TIM1_CC_IRQHandler>:
 8000768:	b580      	push	{r7, lr}
 800076a:	af00      	add	r7, sp, #0
 800076c:	4b03      	ldr	r3, [pc, #12]	; (800077c <TIM1_CC_IRQHandler+0x14>)
 800076e:	0018      	movs	r0, r3
 8000770:	f001 f83c 	bl	80017ec <HAL_TIM_IRQHandler>
 8000774:	46c0      	nop			; (mov r8, r8)
 8000776:	46bd      	mov	sp, r7
 8000778:	bd80      	pop	{r7, pc}
 800077a:	46c0      	nop			; (mov r8, r8)
 800077c:	20000028 	.word	0x20000028

08000780 <SystemInit>:
 8000780:	b580      	push	{r7, lr}
 8000782:	af00      	add	r7, sp, #0
 8000784:	46c0      	nop			; (mov r8, r8)
 8000786:	46bd      	mov	sp, r7
 8000788:	bd80      	pop	{r7, pc}
	...

0800078c <Reset_Handler>:
 800078c:	480d      	ldr	r0, [pc, #52]	; (80007c4 <LoopForever+0x2>)
 800078e:	4685      	mov	sp, r0
 8000790:	f7ff fff6 	bl	8000780 <SystemInit>
 8000794:	480c      	ldr	r0, [pc, #48]	; (80007c8 <LoopForever+0x6>)
 8000796:	490d      	ldr	r1, [pc, #52]	; (80007cc <LoopForever+0xa>)
 8000798:	4a0d      	ldr	r2, [pc, #52]	; (80007d0 <LoopForever+0xe>)
 800079a:	2300      	movs	r3, #0
 800079c:	e002      	b.n	80007a4 <LoopCopyDataInit>

0800079e <CopyDataInit>:
 800079e:	58d4      	ldr	r4, [r2, r3]
 80007a0:	50c4      	str	r4, [r0, r3]
 80007a2:	3304      	adds	r3, #4

080007a4 <LoopCopyDataInit>:
 80007a4:	18c4      	adds	r4, r0, r3
 80007a6:	428c      	cmp	r4, r1
 80007a8:	d3f9      	bcc.n	800079e <CopyDataInit>
 80007aa:	4a0a      	ldr	r2, [pc, #40]	; (80007d4 <LoopForever+0x12>)
 80007ac:	4c0a      	ldr	r4, [pc, #40]	; (80007d8 <LoopForever+0x16>)
 80007ae:	2300      	movs	r3, #0
 80007b0:	e001      	b.n	80007b6 <LoopFillZerobss>

080007b2 <FillZerobss>:
 80007b2:	6013      	str	r3, [r2, #0]
 80007b4:	3204      	adds	r2, #4

080007b6 <LoopFillZerobss>:
 80007b6:	42a2      	cmp	r2, r4
 80007b8:	d3fb      	bcc.n	80007b2 <FillZerobss>
 80007ba:	f001 fddf 	bl	800237c <__libc_init_array>
 80007be:	f7ff fdab 	bl	8000318 <main>

080007c2 <LoopForever>:
 80007c2:	e7fe      	b.n	80007c2 <LoopForever>
 80007c4:	20002000 	.word	0x20002000
 80007c8:	20000000 	.word	0x20000000
 80007cc:	2000000c 	.word	0x2000000c
 80007d0:	08002414 	.word	0x08002414
 80007d4:	2000000c 	.word	0x2000000c
 80007d8:	2000007c 	.word	0x2000007c

080007dc <ADC1_IRQHandler>:
 80007dc:	e7fe      	b.n	80007dc <ADC1_IRQHandler>
	...

080007e0 <HAL_Init>:
 80007e0:	b580      	push	{r7, lr}
 80007e2:	af00      	add	r7, sp, #0
 80007e4:	4b07      	ldr	r3, [pc, #28]	; (8000804 <HAL_Init+0x24>)
 80007e6:	681a      	ldr	r2, [r3, #0]
 80007e8:	4b06      	ldr	r3, [pc, #24]	; (8000804 <HAL_Init+0x24>)
 80007ea:	2110      	movs	r1, #16
 80007ec:	430a      	orrs	r2, r1
 80007ee:	601a      	str	r2, [r3, #0]
 80007f0:	2000      	movs	r0, #0
 80007f2:	f000 f809 	bl	8000808 <HAL_InitTick>
 80007f6:	f7ff ff37 	bl	8000668 <HAL_MspInit>
 80007fa:	2300      	movs	r3, #0
 80007fc:	0018      	movs	r0, r3
 80007fe:	46bd      	mov	sp, r7
 8000800:	bd80      	pop	{r7, pc}
 8000802:	46c0      	nop			; (mov r8, r8)
 8000804:	40022000 	.word	0x40022000

08000808 <HAL_InitTick>:
 8000808:	b590      	push	{r4, r7, lr}
 800080a:	b083      	sub	sp, #12
 800080c:	af00      	add	r7, sp, #0
 800080e:	6078      	str	r0, [r7, #4]
 8000810:	4b14      	ldr	r3, [pc, #80]	; (8000864 <HAL_InitTick+0x5c>)
 8000812:	681c      	ldr	r4, [r3, #0]
 8000814:	4b14      	ldr	r3, [pc, #80]	; (8000868 <HAL_InitTick+0x60>)
 8000816:	781b      	ldrb	r3, [r3, #0]
 8000818:	0019      	movs	r1, r3
 800081a:	23fa      	movs	r3, #250	; 0xfa
 800081c:	0098      	lsls	r0, r3, #2
 800081e:	f7ff fc73 	bl	8000108 <__udivsi3>
 8000822:	0003      	movs	r3, r0
 8000824:	0019      	movs	r1, r3
 8000826:	0020      	movs	r0, r4
 8000828:	f7ff fc6e 	bl	8000108 <__udivsi3>
 800082c:	0003      	movs	r3, r0
 800082e:	0018      	movs	r0, r3
 8000830:	f000 f92f 	bl	8000a92 <HAL_SYSTICK_Config>
 8000834:	1e03      	subs	r3, r0, #0
 8000836:	d001      	beq.n	800083c <HAL_InitTick+0x34>
 8000838:	2301      	movs	r3, #1
 800083a:	e00f      	b.n	800085c <HAL_InitTick+0x54>
 800083c:	687b      	ldr	r3, [r7, #4]
 800083e:	2b03      	cmp	r3, #3
 8000840:	d80b      	bhi.n	800085a <HAL_InitTick+0x52>
 8000842:	6879      	ldr	r1, [r7, #4]
 8000844:	2301      	movs	r3, #1
 8000846:	425b      	negs	r3, r3
 8000848:	2200      	movs	r2, #0
 800084a:	0018      	movs	r0, r3
 800084c:	f000 f8fc 	bl	8000a48 <HAL_NVIC_SetPriority>
 8000850:	4b06      	ldr	r3, [pc, #24]	; (800086c <HAL_InitTick+0x64>)
 8000852:	687a      	ldr	r2, [r7, #4]
 8000854:	601a      	str	r2, [r3, #0]
 8000856:	2300      	movs	r3, #0
 8000858:	e000      	b.n	800085c <HAL_InitTick+0x54>
 800085a:	2301      	movs	r3, #1
 800085c:	0018      	movs	r0, r3
 800085e:	46bd      	mov	sp, r7
 8000860:	b003      	add	sp, #12
 8000862:	bd90      	pop	{r4, r7, pc}
 8000864:	20000000 	.word	0x20000000
 8000868:	20000008 	.word	0x20000008
 800086c:	20000004 	.word	0x20000004

08000870 <HAL_IncTick>:
 8000870:	b580      	push	{r7, lr}
 8000872:	af00      	add	r7, sp, #0
 8000874:	4b05      	ldr	r3, [pc, #20]	; (800088c <HAL_IncTick+0x1c>)
 8000876:	781b      	ldrb	r3, [r3, #0]
 8000878:	001a      	movs	r2, r3
 800087a:	4b05      	ldr	r3, [pc, #20]	; (8000890 <HAL_IncTick+0x20>)
 800087c:	681b      	ldr	r3, [r3, #0]
 800087e:	18d2      	adds	r2, r2, r3
 8000880:	4b03      	ldr	r3, [pc, #12]	; (8000890 <HAL_IncTick+0x20>)
 8000882:	601a      	str	r2, [r3, #0]
 8000884:	46c0      	nop			; (mov r8, r8)
 8000886:	46bd      	mov	sp, r7
 8000888:	bd80      	pop	{r7, pc}
 800088a:	46c0      	nop			; (mov r8, r8)
 800088c:	20000008 	.word	0x20000008
 8000890:	20000078 	.word	0x20000078

08000894 <HAL_GetTick>:
 8000894:	b580      	push	{r7, lr}
 8000896:	af00      	add	r7, sp, #0
 8000898:	4b02      	ldr	r3, [pc, #8]	; (80008a4 <HAL_GetTick+0x10>)
 800089a:	681b      	ldr	r3, [r3, #0]
 800089c:	0018      	movs	r0, r3
 800089e:	46bd      	mov	sp, r7
 80008a0:	bd80      	pop	{r7, pc}
 80008a2:	46c0      	nop			; (mov r8, r8)
 80008a4:	20000078 	.word	0x20000078

080008a8 <HAL_Delay>:
 80008a8:	b580      	push	{r7, lr}
 80008aa:	b084      	sub	sp, #16
 80008ac:	af00      	add	r7, sp, #0
 80008ae:	6078      	str	r0, [r7, #4]
 80008b0:	f7ff fff0 	bl	8000894 <HAL_GetTick>
 80008b4:	0003      	movs	r3, r0
 80008b6:	60bb      	str	r3, [r7, #8]
 80008b8:	687b      	ldr	r3, [r7, #4]
 80008ba:	60fb      	str	r3, [r7, #12]
 80008bc:	68fb      	ldr	r3, [r7, #12]
 80008be:	3301      	adds	r3, #1
 80008c0:	d005      	beq.n	80008ce <HAL_Delay+0x26>
 80008c2:	4b0a      	ldr	r3, [pc, #40]	; (80008ec <HAL_Delay+0x44>)
 80008c4:	781b      	ldrb	r3, [r3, #0]
 80008c6:	001a      	movs	r2, r3
 80008c8:	68fb      	ldr	r3, [r7, #12]
 80008ca:	189b      	adds	r3, r3, r2
 80008cc:	60fb      	str	r3, [r7, #12]
 80008ce:	46c0      	nop			; (mov r8, r8)
 80008d0:	f7ff ffe0 	bl	8000894 <HAL_GetTick>
 80008d4:	0002      	movs	r2, r0
 80008d6:	68bb      	ldr	r3, [r7, #8]
 80008d8:	1ad3      	subs	r3, r2, r3
 80008da:	68fa      	ldr	r2, [r7, #12]
 80008dc:	429a      	cmp	r2, r3
 80008de:	d8f7      	bhi.n	80008d0 <HAL_Delay+0x28>
 80008e0:	46c0      	nop			; (mov r8, r8)
 80008e2:	46c0      	nop			; (mov r8, r8)
 80008e4:	46bd      	mov	sp, r7
 80008e6:	b004      	add	sp, #16
 80008e8:	bd80      	pop	{r7, pc}
 80008ea:	46c0      	nop			; (mov r8, r8)
 80008ec:	20000008 	.word	0x20000008

080008f0 <__NVIC_EnableIRQ>:
 80008f0:	b580      	push	{r7, lr}
 80008f2:	b082      	sub	sp, #8
 80008f4:	af00      	add	r7, sp, #0
 80008f6:	0002      	movs	r2, r0
 80008f8:	1dfb      	adds	r3, r7, #7
 80008fa:	701a      	strb	r2, [r3, #0]
 80008fc:	1dfb      	adds	r3, r7, #7
 80008fe:	781b      	ldrb	r3, [r3, #0]
 8000900:	2b7f      	cmp	r3, #127	; 0x7f
 8000902:	d809      	bhi.n	8000918 <__NVIC_EnableIRQ+0x28>
 8000904:	1dfb      	adds	r3, r7, #7
 8000906:	781b      	ldrb	r3, [r3, #0]
 8000908:	001a      	movs	r2, r3
 800090a:	231f      	movs	r3, #31
 800090c:	401a      	ands	r2, r3
 800090e:	4b04      	ldr	r3, [pc, #16]	; (8000920 <__NVIC_EnableIRQ+0x30>)
 8000910:	2101      	movs	r1, #1
 8000912:	4091      	lsls	r1, r2
 8000914:	000a      	movs	r2, r1
 8000916:	601a      	str	r2, [r3, #0]
 8000918:	46c0      	nop			; (mov r8, r8)
 800091a:	46bd      	mov	sp, r7
 800091c:	b002      	add	sp, #8
 800091e:	bd80      	pop	{r7, pc}
 8000920:	e000e100 	.word	0xe000e100

08000924 <__NVIC_SetPriority>:
 8000924:	b590      	push	{r4, r7, lr}
 8000926:	b083      	sub	sp, #12
 8000928:	af00      	add	r7, sp, #0
 800092a:	0002      	movs	r2, r0
 800092c:	6039      	str	r1, [r7, #0]
 800092e:	1dfb      	adds	r3, r7, #7
 8000930:	701a      	strb	r2, [r3, #0]
 8000932:	1dfb      	adds	r3, r7, #7
 8000934:	781b      	ldrb	r3, [r3, #0]
 8000936:	2b7f      	cmp	r3, #127	; 0x7f
 8000938:	d828      	bhi.n	800098c <__NVIC_SetPriority+0x68>
 800093a:	4a2f      	ldr	r2, [pc, #188]	; (80009f8 <__NVIC_SetPriority+0xd4>)
 800093c:	1dfb      	adds	r3, r7, #7
 800093e:	781b      	ldrb	r3, [r3, #0]
 8000940:	b25b      	sxtb	r3, r3
 8000942:	089b      	lsrs	r3, r3, #2
 8000944:	33c0      	adds	r3, #192	; 0xc0
 8000946:	009b      	lsls	r3, r3, #2
 8000948:	589b      	ldr	r3, [r3, r2]
 800094a:	1dfa      	adds	r2, r7, #7
 800094c:	7812      	ldrb	r2, [r2, #0]
 800094e:	0011      	movs	r1, r2
 8000950:	2203      	movs	r2, #3
 8000952:	400a      	ands	r2, r1
 8000954:	00d2      	lsls	r2, r2, #3
 8000956:	21ff      	movs	r1, #255	; 0xff
 8000958:	4091      	lsls	r1, r2
 800095a:	000a      	movs	r2, r1
 800095c:	43d2      	mvns	r2, r2
 800095e:	401a      	ands	r2, r3
 8000960:	0011      	movs	r1, r2
 8000962:	683b      	ldr	r3, [r7, #0]
 8000964:	019b      	lsls	r3, r3, #6
 8000966:	22ff      	movs	r2, #255	; 0xff
 8000968:	401a      	ands	r2, r3
 800096a:	1dfb      	adds	r3, r7, #7
 800096c:	781b      	ldrb	r3, [r3, #0]
 800096e:	0018      	movs	r0, r3
 8000970:	2303      	movs	r3, #3
 8000972:	4003      	ands	r3, r0
 8000974:	00db      	lsls	r3, r3, #3
 8000976:	409a      	lsls	r2, r3
 8000978:	481f      	ldr	r0, [pc, #124]	; (80009f8 <__NVIC_SetPriority+0xd4>)
 800097a:	1dfb      	adds	r3, r7, #7
 800097c:	781b      	ldrb	r3, [r3, #0]
 800097e:	b25b      	sxtb	r3, r3
 8000980:	089b      	lsrs	r3, r3, #2
 8000982:	430a      	orrs	r2, r1
 8000984:	33c0      	adds	r3, #192	; 0xc0
 8000986:	009b      	lsls	r3, r3, #2
 8000988:	501a      	str	r2, [r3, r0]
 800098a:	e031      	b.n	80009f0 <__NVIC_SetPriority+0xcc>
 800098c:	4a1b      	ldr	r2, [pc, #108]	; (80009fc <__NVIC_SetPriority+0xd8>)
 800098e:	1dfb      	adds	r3, r7, #7
 8000990:	781b      	ldrb	r3, [r3, #0]
 8000992:	0019      	movs	r1, r3
 8000994:	230f      	movs	r3, #15
 8000996:	400b      	ands	r3, r1
 8000998:	3b08      	subs	r3, #8
 800099a:	089b      	lsrs	r3, r3, #2
 800099c:	3306      	adds	r3, #6
 800099e:	009b      	lsls	r3, r3, #2
 80009a0:	18d3      	adds	r3, r2, r3
 80009a2:	3304      	adds	r3, #4
 80009a4:	681b      	ldr	r3, [r3, #0]
 80009a6:	1dfa      	adds	r2, r7, #7
 80009a8:	7812      	ldrb	r2, [r2, #0]
 80009aa:	0011      	movs	r1, r2
 80009ac:	2203      	movs	r2, #3
 80009ae:	400a      	ands	r2, r1
 80009b0:	00d2      	lsls	r2, r2, #3
 80009b2:	21ff      	movs	r1, #255	; 0xff
 80009b4:	4091      	lsls	r1, r2
 80009b6:	000a      	movs	r2, r1
 80009b8:	43d2      	mvns	r2, r2
 80009ba:	401a      	ands	r2, r3
 80009bc:	0011      	movs	r1, r2
 80009be:	683b      	ldr	r3, [r7, #0]
 80009c0:	019b      	lsls	r3, r3, #6
 80009c2:	22ff      	movs	r2, #255	; 0xff
 80009c4:	401a      	ands	r2, r3
 80009c6:	1dfb      	adds	r3, r7, #7
 80009c8:	781b      	ldrb	r3, [r3, #0]
 80009ca:	0018      	movs	r0, r3
 80009cc:	2303      	movs	r3, #3
 80009ce:	4003      	ands	r3, r0
 80009d0:	00db      	lsls	r3, r3, #3
 80009d2:	409a      	lsls	r2, r3
 80009d4:	4809      	ldr	r0, [pc, #36]	; (80009fc <__NVIC_SetPriority+0xd8>)
 80009d6:	1dfb      	adds	r3, r7, #7
 80009d8:	781b      	ldrb	r3, [r3, #0]
 80009da:	001c      	movs	r4, r3
 80009dc:	230f      	movs	r3, #15
 80009de:	4023      	ands	r3, r4
 80009e0:	3b08      	subs	r3, #8
 80009e2:	089b      	lsrs	r3, r3, #2
 80009e4:	430a      	orrs	r2, r1
 80009e6:	3306      	adds	r3, #6
 80009e8:	009b      	lsls	r3, r3, #2
 80009ea:	18c3      	adds	r3, r0, r3
 80009ec:	3304      	adds	r3, #4
 80009ee:	601a      	str	r2, [r3, #0]
 80009f0:	46c0      	nop			; (mov r8, r8)
 80009f2:	46bd      	mov	sp, r7
 80009f4:	b003      	add	sp, #12
 80009f6:	bd90      	pop	{r4, r7, pc}
 80009f8:	e000e100 	.word	0xe000e100
 80009fc:	e000ed00 	.word	0xe000ed00

08000a00 <SysTick_Config>:
 8000a00:	b580      	push	{r7, lr}
 8000a02:	b082      	sub	sp, #8
 8000a04:	af00      	add	r7, sp, #0
 8000a06:	6078      	str	r0, [r7, #4]
 8000a08:	687b      	ldr	r3, [r7, #4]
 8000a0a:	1e5a      	subs	r2, r3, #1
 8000a0c:	2380      	movs	r3, #128	; 0x80
 8000a0e:	045b      	lsls	r3, r3, #17
 8000a10:	429a      	cmp	r2, r3
 8000a12:	d301      	bcc.n	8000a18 <SysTick_Config+0x18>
 8000a14:	2301      	movs	r3, #1
 8000a16:	e010      	b.n	8000a3a <SysTick_Config+0x3a>
 8000a18:	4b0a      	ldr	r3, [pc, #40]	; (8000a44 <SysTick_Config+0x44>)
 8000a1a:	687a      	ldr	r2, [r7, #4]
 8000a1c:	3a01      	subs	r2, #1
 8000a1e:	605a      	str	r2, [r3, #4]
 8000a20:	2301      	movs	r3, #1
 8000a22:	425b      	negs	r3, r3
 8000a24:	2103      	movs	r1, #3
 8000a26:	0018      	movs	r0, r3
 8000a28:	f7ff ff7c 	bl	8000924 <__NVIC_SetPriority>
 8000a2c:	4b05      	ldr	r3, [pc, #20]	; (8000a44 <SysTick_Config+0x44>)
 8000a2e:	2200      	movs	r2, #0
 8000a30:	609a      	str	r2, [r3, #8]
 8000a32:	4b04      	ldr	r3, [pc, #16]	; (8000a44 <SysTick_Config+0x44>)
 8000a34:	2207      	movs	r2, #7
 8000a36:	601a      	str	r2, [r3, #0]
 8000a38:	2300      	movs	r3, #0
 8000a3a:	0018      	movs	r0, r3
 8000a3c:	46bd      	mov	sp, r7
 8000a3e:	b002      	add	sp, #8
 8000a40:	bd80      	pop	{r7, pc}
 8000a42:	46c0      	nop			; (mov r8, r8)
 8000a44:	e000e010 	.word	0xe000e010

08000a48 <HAL_NVIC_SetPriority>:
 8000a48:	b580      	push	{r7, lr}
 8000a4a:	b084      	sub	sp, #16
 8000a4c:	af00      	add	r7, sp, #0
 8000a4e:	60b9      	str	r1, [r7, #8]
 8000a50:	607a      	str	r2, [r7, #4]
 8000a52:	210f      	movs	r1, #15
 8000a54:	187b      	adds	r3, r7, r1
 8000a56:	1c02      	adds	r2, r0, #0
 8000a58:	701a      	strb	r2, [r3, #0]
 8000a5a:	68ba      	ldr	r2, [r7, #8]
 8000a5c:	187b      	adds	r3, r7, r1
 8000a5e:	781b      	ldrb	r3, [r3, #0]
 8000a60:	b25b      	sxtb	r3, r3
 8000a62:	0011      	movs	r1, r2
 8000a64:	0018      	movs	r0, r3
 8000a66:	f7ff ff5d 	bl	8000924 <__NVIC_SetPriority>
 8000a6a:	46c0      	nop			; (mov r8, r8)
 8000a6c:	46bd      	mov	sp, r7
 8000a6e:	b004      	add	sp, #16
 8000a70:	bd80      	pop	{r7, pc}

08000a72 <HAL_NVIC_EnableIRQ>:
 8000a72:	b580      	push	{r7, lr}
 8000a74:	b082      	sub	sp, #8
 8000a76:	af00      	add	r7, sp, #0
 8000a78:	0002      	movs	r2, r0
 8000a7a:	1dfb      	adds	r3, r7, #7
 8000a7c:	701a      	strb	r2, [r3, #0]
 8000a7e:	1dfb      	adds	r3, r7, #7
 8000a80:	781b      	ldrb	r3, [r3, #0]
 8000a82:	b25b      	sxtb	r3, r3
 8000a84:	0018      	movs	r0, r3
 8000a86:	f7ff ff33 	bl	80008f0 <__NVIC_EnableIRQ>
 8000a8a:	46c0      	nop			; (mov r8, r8)
 8000a8c:	46bd      	mov	sp, r7
 8000a8e:	b002      	add	sp, #8
 8000a90:	bd80      	pop	{r7, pc}

08000a92 <HAL_SYSTICK_Config>:
 8000a92:	b580      	push	{r7, lr}
 8000a94:	b082      	sub	sp, #8
 8000a96:	af00      	add	r7, sp, #0
 8000a98:	6078      	str	r0, [r7, #4]
 8000a9a:	687b      	ldr	r3, [r7, #4]
 8000a9c:	0018      	movs	r0, r3
 8000a9e:	f7ff ffaf 	bl	8000a00 <SysTick_Config>
 8000aa2:	0003      	movs	r3, r0
 8000aa4:	0018      	movs	r0, r3
 8000aa6:	46bd      	mov	sp, r7
 8000aa8:	b002      	add	sp, #8
 8000aaa:	bd80      	pop	{r7, pc}

08000aac <HAL_GPIO_Init>:
 8000aac:	b580      	push	{r7, lr}
 8000aae:	b086      	sub	sp, #24
 8000ab0:	af00      	add	r7, sp, #0
 8000ab2:	6078      	str	r0, [r7, #4]
 8000ab4:	6039      	str	r1, [r7, #0]
 8000ab6:	2300      	movs	r3, #0
 8000ab8:	617b      	str	r3, [r7, #20]
 8000aba:	e14f      	b.n	8000d5c <HAL_GPIO_Init+0x2b0>
 8000abc:	683b      	ldr	r3, [r7, #0]
 8000abe:	681b      	ldr	r3, [r3, #0]
 8000ac0:	2101      	movs	r1, #1
 8000ac2:	697a      	ldr	r2, [r7, #20]
 8000ac4:	4091      	lsls	r1, r2
 8000ac6:	000a      	movs	r2, r1
 8000ac8:	4013      	ands	r3, r2
 8000aca:	60fb      	str	r3, [r7, #12]
 8000acc:	68fb      	ldr	r3, [r7, #12]
 8000ace:	2b00      	cmp	r3, #0
 8000ad0:	d100      	bne.n	8000ad4 <HAL_GPIO_Init+0x28>
 8000ad2:	e140      	b.n	8000d56 <HAL_GPIO_Init+0x2aa>
 8000ad4:	683b      	ldr	r3, [r7, #0]
 8000ad6:	685b      	ldr	r3, [r3, #4]
 8000ad8:	2203      	movs	r2, #3
 8000ada:	4013      	ands	r3, r2
 8000adc:	2b01      	cmp	r3, #1
 8000ade:	d005      	beq.n	8000aec <HAL_GPIO_Init+0x40>
 8000ae0:	683b      	ldr	r3, [r7, #0]
 8000ae2:	685b      	ldr	r3, [r3, #4]
 8000ae4:	2203      	movs	r2, #3
 8000ae6:	4013      	ands	r3, r2
 8000ae8:	2b02      	cmp	r3, #2
 8000aea:	d130      	bne.n	8000b4e <HAL_GPIO_Init+0xa2>
 8000aec:	687b      	ldr	r3, [r7, #4]
 8000aee:	689b      	ldr	r3, [r3, #8]
 8000af0:	613b      	str	r3, [r7, #16]
 8000af2:	697b      	ldr	r3, [r7, #20]
 8000af4:	005b      	lsls	r3, r3, #1
 8000af6:	2203      	movs	r2, #3
 8000af8:	409a      	lsls	r2, r3
 8000afa:	0013      	movs	r3, r2
 8000afc:	43da      	mvns	r2, r3
 8000afe:	693b      	ldr	r3, [r7, #16]
 8000b00:	4013      	ands	r3, r2
 8000b02:	613b      	str	r3, [r7, #16]
 8000b04:	683b      	ldr	r3, [r7, #0]
 8000b06:	68da      	ldr	r2, [r3, #12]
 8000b08:	697b      	ldr	r3, [r7, #20]
 8000b0a:	005b      	lsls	r3, r3, #1
 8000b0c:	409a      	lsls	r2, r3
 8000b0e:	0013      	movs	r3, r2
 8000b10:	693a      	ldr	r2, [r7, #16]
 8000b12:	4313      	orrs	r3, r2
 8000b14:	613b      	str	r3, [r7, #16]
 8000b16:	687b      	ldr	r3, [r7, #4]
 8000b18:	693a      	ldr	r2, [r7, #16]
 8000b1a:	609a      	str	r2, [r3, #8]
 8000b1c:	687b      	ldr	r3, [r7, #4]
 8000b1e:	685b      	ldr	r3, [r3, #4]
 8000b20:	613b      	str	r3, [r7, #16]
 8000b22:	2201      	movs	r2, #1
 8000b24:	697b      	ldr	r3, [r7, #20]
 8000b26:	409a      	lsls	r2, r3
 8000b28:	0013      	movs	r3, r2
 8000b2a:	43da      	mvns	r2, r3
 8000b2c:	693b      	ldr	r3, [r7, #16]
 8000b2e:	4013      	ands	r3, r2
 8000b30:	613b      	str	r3, [r7, #16]
 8000b32:	683b      	ldr	r3, [r7, #0]
 8000b34:	685b      	ldr	r3, [r3, #4]
 8000b36:	091b      	lsrs	r3, r3, #4
 8000b38:	2201      	movs	r2, #1
 8000b3a:	401a      	ands	r2, r3
 8000b3c:	697b      	ldr	r3, [r7, #20]
 8000b3e:	409a      	lsls	r2, r3
 8000b40:	0013      	movs	r3, r2
 8000b42:	693a      	ldr	r2, [r7, #16]
 8000b44:	4313      	orrs	r3, r2
 8000b46:	613b      	str	r3, [r7, #16]
 8000b48:	687b      	ldr	r3, [r7, #4]
 8000b4a:	693a      	ldr	r2, [r7, #16]
 8000b4c:	605a      	str	r2, [r3, #4]
 8000b4e:	683b      	ldr	r3, [r7, #0]
 8000b50:	685b      	ldr	r3, [r3, #4]
 8000b52:	2203      	movs	r2, #3
 8000b54:	4013      	ands	r3, r2
 8000b56:	2b03      	cmp	r3, #3
 8000b58:	d017      	beq.n	8000b8a <HAL_GPIO_Init+0xde>
 8000b5a:	687b      	ldr	r3, [r7, #4]
 8000b5c:	68db      	ldr	r3, [r3, #12]
 8000b5e:	613b      	str	r3, [r7, #16]
 8000b60:	697b      	ldr	r3, [r7, #20]
 8000b62:	005b      	lsls	r3, r3, #1
 8000b64:	2203      	movs	r2, #3
 8000b66:	409a      	lsls	r2, r3
 8000b68:	0013      	movs	r3, r2
 8000b6a:	43da      	mvns	r2, r3
 8000b6c:	693b      	ldr	r3, [r7, #16]
 8000b6e:	4013      	ands	r3, r2
 8000b70:	613b      	str	r3, [r7, #16]
 8000b72:	683b      	ldr	r3, [r7, #0]
 8000b74:	689a      	ldr	r2, [r3, #8]
 8000b76:	697b      	ldr	r3, [r7, #20]
 8000b78:	005b      	lsls	r3, r3, #1
 8000b7a:	409a      	lsls	r2, r3
 8000b7c:	0013      	movs	r3, r2
 8000b7e:	693a      	ldr	r2, [r7, #16]
 8000b80:	4313      	orrs	r3, r2
 8000b82:	613b      	str	r3, [r7, #16]
 8000b84:	687b      	ldr	r3, [r7, #4]
 8000b86:	693a      	ldr	r2, [r7, #16]
 8000b88:	60da      	str	r2, [r3, #12]
 8000b8a:	683b      	ldr	r3, [r7, #0]
 8000b8c:	685b      	ldr	r3, [r3, #4]
 8000b8e:	2203      	movs	r2, #3
 8000b90:	4013      	ands	r3, r2
 8000b92:	2b02      	cmp	r3, #2
 8000b94:	d123      	bne.n	8000bde <HAL_GPIO_Init+0x132>
 8000b96:	697b      	ldr	r3, [r7, #20]
 8000b98:	08da      	lsrs	r2, r3, #3
 8000b9a:	687b      	ldr	r3, [r7, #4]
 8000b9c:	3208      	adds	r2, #8
 8000b9e:	0092      	lsls	r2, r2, #2
 8000ba0:	58d3      	ldr	r3, [r2, r3]
 8000ba2:	613b      	str	r3, [r7, #16]
 8000ba4:	697b      	ldr	r3, [r7, #20]
 8000ba6:	2207      	movs	r2, #7
 8000ba8:	4013      	ands	r3, r2
 8000baa:	009b      	lsls	r3, r3, #2
 8000bac:	220f      	movs	r2, #15
 8000bae:	409a      	lsls	r2, r3
 8000bb0:	0013      	movs	r3, r2
 8000bb2:	43da      	mvns	r2, r3
 8000bb4:	693b      	ldr	r3, [r7, #16]
 8000bb6:	4013      	ands	r3, r2
 8000bb8:	613b      	str	r3, [r7, #16]
 8000bba:	683b      	ldr	r3, [r7, #0]
 8000bbc:	691a      	ldr	r2, [r3, #16]
 8000bbe:	697b      	ldr	r3, [r7, #20]
 8000bc0:	2107      	movs	r1, #7
 8000bc2:	400b      	ands	r3, r1
 8000bc4:	009b      	lsls	r3, r3, #2
 8000bc6:	409a      	lsls	r2, r3
 8000bc8:	0013      	movs	r3, r2
 8000bca:	693a      	ldr	r2, [r7, #16]
 8000bcc:	4313      	orrs	r3, r2
 8000bce:	613b      	str	r3, [r7, #16]
 8000bd0:	697b      	ldr	r3, [r7, #20]
 8000bd2:	08da      	lsrs	r2, r3, #3
 8000bd4:	687b      	ldr	r3, [r7, #4]
 8000bd6:	3208      	adds	r2, #8
 8000bd8:	0092      	lsls	r2, r2, #2
 8000bda:	6939      	ldr	r1, [r7, #16]
 8000bdc:	50d1      	str	r1, [r2, r3]
 8000bde:	687b      	ldr	r3, [r7, #4]
 8000be0:	681b      	ldr	r3, [r3, #0]
 8000be2:	613b      	str	r3, [r7, #16]
 8000be4:	697b      	ldr	r3, [r7, #20]
 8000be6:	005b      	lsls	r3, r3, #1
 8000be8:	2203      	movs	r2, #3
 8000bea:	409a      	lsls	r2, r3
 8000bec:	0013      	movs	r3, r2
 8000bee:	43da      	mvns	r2, r3
 8000bf0:	693b      	ldr	r3, [r7, #16]
 8000bf2:	4013      	ands	r3, r2
 8000bf4:	613b      	str	r3, [r7, #16]
 8000bf6:	683b      	ldr	r3, [r7, #0]
 8000bf8:	685b      	ldr	r3, [r3, #4]
 8000bfa:	2203      	movs	r2, #3
 8000bfc:	401a      	ands	r2, r3
 8000bfe:	697b      	ldr	r3, [r7, #20]
 8000c00:	005b      	lsls	r3, r3, #1
 8000c02:	409a      	lsls	r2, r3
 8000c04:	0013      	movs	r3, r2
 8000c06:	693a      	ldr	r2, [r7, #16]
 8000c08:	4313      	orrs	r3, r2
 8000c0a:	613b      	str	r3, [r7, #16]
 8000c0c:	687b      	ldr	r3, [r7, #4]
 8000c0e:	693a      	ldr	r2, [r7, #16]
 8000c10:	601a      	str	r2, [r3, #0]
 8000c12:	683b      	ldr	r3, [r7, #0]
 8000c14:	685a      	ldr	r2, [r3, #4]
 8000c16:	23c0      	movs	r3, #192	; 0xc0
 8000c18:	029b      	lsls	r3, r3, #10
 8000c1a:	4013      	ands	r3, r2
 8000c1c:	d100      	bne.n	8000c20 <HAL_GPIO_Init+0x174>
 8000c1e:	e09a      	b.n	8000d56 <HAL_GPIO_Init+0x2aa>
 8000c20:	4b54      	ldr	r3, [pc, #336]	; (8000d74 <HAL_GPIO_Init+0x2c8>)
 8000c22:	699a      	ldr	r2, [r3, #24]
 8000c24:	4b53      	ldr	r3, [pc, #332]	; (8000d74 <HAL_GPIO_Init+0x2c8>)
 8000c26:	2101      	movs	r1, #1
 8000c28:	430a      	orrs	r2, r1
 8000c2a:	619a      	str	r2, [r3, #24]
 8000c2c:	4b51      	ldr	r3, [pc, #324]	; (8000d74 <HAL_GPIO_Init+0x2c8>)
 8000c2e:	699b      	ldr	r3, [r3, #24]
 8000c30:	2201      	movs	r2, #1
 8000c32:	4013      	ands	r3, r2
 8000c34:	60bb      	str	r3, [r7, #8]
 8000c36:	68bb      	ldr	r3, [r7, #8]
 8000c38:	4a4f      	ldr	r2, [pc, #316]	; (8000d78 <HAL_GPIO_Init+0x2cc>)
 8000c3a:	697b      	ldr	r3, [r7, #20]
 8000c3c:	089b      	lsrs	r3, r3, #2
 8000c3e:	3302      	adds	r3, #2
 8000c40:	009b      	lsls	r3, r3, #2
 8000c42:	589b      	ldr	r3, [r3, r2]
 8000c44:	613b      	str	r3, [r7, #16]
 8000c46:	697b      	ldr	r3, [r7, #20]
 8000c48:	2203      	movs	r2, #3
 8000c4a:	4013      	ands	r3, r2
 8000c4c:	009b      	lsls	r3, r3, #2
 8000c4e:	220f      	movs	r2, #15
 8000c50:	409a      	lsls	r2, r3
 8000c52:	0013      	movs	r3, r2
 8000c54:	43da      	mvns	r2, r3
 8000c56:	693b      	ldr	r3, [r7, #16]
 8000c58:	4013      	ands	r3, r2
 8000c5a:	613b      	str	r3, [r7, #16]
 8000c5c:	687a      	ldr	r2, [r7, #4]
 8000c5e:	2390      	movs	r3, #144	; 0x90
 8000c60:	05db      	lsls	r3, r3, #23
 8000c62:	429a      	cmp	r2, r3
 8000c64:	d013      	beq.n	8000c8e <HAL_GPIO_Init+0x1e2>
 8000c66:	687b      	ldr	r3, [r7, #4]
 8000c68:	4a44      	ldr	r2, [pc, #272]	; (8000d7c <HAL_GPIO_Init+0x2d0>)
 8000c6a:	4293      	cmp	r3, r2
 8000c6c:	d00d      	beq.n	8000c8a <HAL_GPIO_Init+0x1de>
 8000c6e:	687b      	ldr	r3, [r7, #4]
 8000c70:	4a43      	ldr	r2, [pc, #268]	; (8000d80 <HAL_GPIO_Init+0x2d4>)
 8000c72:	4293      	cmp	r3, r2
 8000c74:	d007      	beq.n	8000c86 <HAL_GPIO_Init+0x1da>
 8000c76:	687b      	ldr	r3, [r7, #4]
 8000c78:	4a42      	ldr	r2, [pc, #264]	; (8000d84 <HAL_GPIO_Init+0x2d8>)
 8000c7a:	4293      	cmp	r3, r2
 8000c7c:	d101      	bne.n	8000c82 <HAL_GPIO_Init+0x1d6>
 8000c7e:	2303      	movs	r3, #3
 8000c80:	e006      	b.n	8000c90 <HAL_GPIO_Init+0x1e4>
 8000c82:	2305      	movs	r3, #5
 8000c84:	e004      	b.n	8000c90 <HAL_GPIO_Init+0x1e4>
 8000c86:	2302      	movs	r3, #2
 8000c88:	e002      	b.n	8000c90 <HAL_GPIO_Init+0x1e4>
 8000c8a:	2301      	movs	r3, #1
 8000c8c:	e000      	b.n	8000c90 <HAL_GPIO_Init+0x1e4>
 8000c8e:	2300      	movs	r3, #0
 8000c90:	697a      	ldr	r2, [r7, #20]
 8000c92:	2103      	movs	r1, #3
 8000c94:	400a      	ands	r2, r1
 8000c96:	0092      	lsls	r2, r2, #2
 8000c98:	4093      	lsls	r3, r2
 8000c9a:	693a      	ldr	r2, [r7, #16]
 8000c9c:	4313      	orrs	r3, r2
 8000c9e:	613b      	str	r3, [r7, #16]
 8000ca0:	4935      	ldr	r1, [pc, #212]	; (8000d78 <HAL_GPIO_Init+0x2cc>)
 8000ca2:	697b      	ldr	r3, [r7, #20]
 8000ca4:	089b      	lsrs	r3, r3, #2
 8000ca6:	3302      	adds	r3, #2
 8000ca8:	009b      	lsls	r3, r3, #2
 8000caa:	693a      	ldr	r2, [r7, #16]
 8000cac:	505a      	str	r2, [r3, r1]
 8000cae:	4b36      	ldr	r3, [pc, #216]	; (8000d88 <HAL_GPIO_Init+0x2dc>)
 8000cb0:	689b      	ldr	r3, [r3, #8]
 8000cb2:	613b      	str	r3, [r7, #16]
 8000cb4:	68fb      	ldr	r3, [r7, #12]
 8000cb6:	43da      	mvns	r2, r3
 8000cb8:	693b      	ldr	r3, [r7, #16]
 8000cba:	4013      	ands	r3, r2
 8000cbc:	613b      	str	r3, [r7, #16]
 8000cbe:	683b      	ldr	r3, [r7, #0]
 8000cc0:	685a      	ldr	r2, [r3, #4]
 8000cc2:	2380      	movs	r3, #128	; 0x80
 8000cc4:	035b      	lsls	r3, r3, #13
 8000cc6:	4013      	ands	r3, r2
 8000cc8:	d003      	beq.n	8000cd2 <HAL_GPIO_Init+0x226>
 8000cca:	693a      	ldr	r2, [r7, #16]
 8000ccc:	68fb      	ldr	r3, [r7, #12]
 8000cce:	4313      	orrs	r3, r2
 8000cd0:	613b      	str	r3, [r7, #16]
 8000cd2:	4b2d      	ldr	r3, [pc, #180]	; (8000d88 <HAL_GPIO_Init+0x2dc>)
 8000cd4:	693a      	ldr	r2, [r7, #16]
 8000cd6:	609a      	str	r2, [r3, #8]
 8000cd8:	4b2b      	ldr	r3, [pc, #172]	; (8000d88 <HAL_GPIO_Init+0x2dc>)
 8000cda:	68db      	ldr	r3, [r3, #12]
 8000cdc:	613b      	str	r3, [r7, #16]
 8000cde:	68fb      	ldr	r3, [r7, #12]
 8000ce0:	43da      	mvns	r2, r3
 8000ce2:	693b      	ldr	r3, [r7, #16]
 8000ce4:	4013      	ands	r3, r2
 8000ce6:	613b      	str	r3, [r7, #16]
 8000ce8:	683b      	ldr	r3, [r7, #0]
 8000cea:	685a      	ldr	r2, [r3, #4]
 8000cec:	2380      	movs	r3, #128	; 0x80
 8000cee:	039b      	lsls	r3, r3, #14
 8000cf0:	4013      	ands	r3, r2
 8000cf2:	d003      	beq.n	8000cfc <HAL_GPIO_Init+0x250>
 8000cf4:	693a      	ldr	r2, [r7, #16]
 8000cf6:	68fb      	ldr	r3, [r7, #12]
 8000cf8:	4313      	orrs	r3, r2
 8000cfa:	613b      	str	r3, [r7, #16]
 8000cfc:	4b22      	ldr	r3, [pc, #136]	; (8000d88 <HAL_GPIO_Init+0x2dc>)
 8000cfe:	693a      	ldr	r2, [r7, #16]
 8000d00:	60da      	str	r2, [r3, #12]
 8000d02:	4b21      	ldr	r3, [pc, #132]	; (8000d88 <HAL_GPIO_Init+0x2dc>)
 8000d04:	685b      	ldr	r3, [r3, #4]
 8000d06:	613b      	str	r3, [r7, #16]
 8000d08:	68fb      	ldr	r3, [r7, #12]
 8000d0a:	43da      	mvns	r2, r3
 8000d0c:	693b      	ldr	r3, [r7, #16]
 8000d0e:	4013      	ands	r3, r2
 8000d10:	613b      	str	r3, [r7, #16]
 8000d12:	683b      	ldr	r3, [r7, #0]
 8000d14:	685a      	ldr	r2, [r3, #4]
 8000d16:	2380      	movs	r3, #128	; 0x80
 8000d18:	029b      	lsls	r3, r3, #10
 8000d1a:	4013      	ands	r3, r2
 8000d1c:	d003      	beq.n	8000d26 <HAL_GPIO_Init+0x27a>
 8000d1e:	693a      	ldr	r2, [r7, #16]
 8000d20:	68fb      	ldr	r3, [r7, #12]
 8000d22:	4313      	orrs	r3, r2
 8000d24:	613b      	str	r3, [r7, #16]
 8000d26:	4b18      	ldr	r3, [pc, #96]	; (8000d88 <HAL_GPIO_Init+0x2dc>)
 8000d28:	693a      	ldr	r2, [r7, #16]
 8000d2a:	605a      	str	r2, [r3, #4]
 8000d2c:	4b16      	ldr	r3, [pc, #88]	; (8000d88 <HAL_GPIO_Init+0x2dc>)
 8000d2e:	681b      	ldr	r3, [r3, #0]
 8000d30:	613b      	str	r3, [r7, #16]
 8000d32:	68fb      	ldr	r3, [r7, #12]
 8000d34:	43da      	mvns	r2, r3
 8000d36:	693b      	ldr	r3, [r7, #16]
 8000d38:	4013      	ands	r3, r2
 8000d3a:	613b      	str	r3, [r7, #16]
 8000d3c:	683b      	ldr	r3, [r7, #0]
 8000d3e:	685a      	ldr	r2, [r3, #4]
 8000d40:	2380      	movs	r3, #128	; 0x80
 8000d42:	025b      	lsls	r3, r3, #9
 8000d44:	4013      	ands	r3, r2
 8000d46:	d003      	beq.n	8000d50 <HAL_GPIO_Init+0x2a4>
 8000d48:	693a      	ldr	r2, [r7, #16]
 8000d4a:	68fb      	ldr	r3, [r7, #12]
 8000d4c:	4313      	orrs	r3, r2
 8000d4e:	613b      	str	r3, [r7, #16]
 8000d50:	4b0d      	ldr	r3, [pc, #52]	; (8000d88 <HAL_GPIO_Init+0x2dc>)
 8000d52:	693a      	ldr	r2, [r7, #16]
 8000d54:	601a      	str	r2, [r3, #0]
 8000d56:	697b      	ldr	r3, [r7, #20]
 8000d58:	3301      	adds	r3, #1
 8000d5a:	617b      	str	r3, [r7, #20]
 8000d5c:	683b      	ldr	r3, [r7, #0]
 8000d5e:	681a      	ldr	r2, [r3, #0]
 8000d60:	697b      	ldr	r3, [r7, #20]
 8000d62:	40da      	lsrs	r2, r3
 8000d64:	1e13      	subs	r3, r2, #0
 8000d66:	d000      	beq.n	8000d6a <HAL_GPIO_Init+0x2be>
 8000d68:	e6a8      	b.n	8000abc <HAL_GPIO_Init+0x10>
 8000d6a:	46c0      	nop			; (mov r8, r8)
 8000d6c:	46c0      	nop			; (mov r8, r8)
 8000d6e:	46bd      	mov	sp, r7
 8000d70:	b006      	add	sp, #24
 8000d72:	bd80      	pop	{r7, pc}
 8000d74:	40021000 	.word	0x40021000
 8000d78:	40010000 	.word	0x40010000
 8000d7c:	48000400 	.word	0x48000400
 8000d80:	48000800 	.word	0x48000800
 8000d84:	48000c00 	.word	0x48000c00
 8000d88:	40010400 	.word	0x40010400

08000d8c <HAL_GPIO_ReadPin>:
 8000d8c:	b580      	push	{r7, lr}
 8000d8e:	b084      	sub	sp, #16
 8000d90:	af00      	add	r7, sp, #0
 8000d92:	6078      	str	r0, [r7, #4]
 8000d94:	000a      	movs	r2, r1
 8000d96:	1cbb      	adds	r3, r7, #2
 8000d98:	801a      	strh	r2, [r3, #0]
 8000d9a:	687b      	ldr	r3, [r7, #4]
 8000d9c:	691b      	ldr	r3, [r3, #16]
 8000d9e:	1cba      	adds	r2, r7, #2
 8000da0:	8812      	ldrh	r2, [r2, #0]
 8000da2:	4013      	ands	r3, r2
 8000da4:	d004      	beq.n	8000db0 <HAL_GPIO_ReadPin+0x24>
 8000da6:	230f      	movs	r3, #15
 8000da8:	18fb      	adds	r3, r7, r3
 8000daa:	2201      	movs	r2, #1
 8000dac:	701a      	strb	r2, [r3, #0]
 8000dae:	e003      	b.n	8000db8 <HAL_GPIO_ReadPin+0x2c>
 8000db0:	230f      	movs	r3, #15
 8000db2:	18fb      	adds	r3, r7, r3
 8000db4:	2200      	movs	r2, #0
 8000db6:	701a      	strb	r2, [r3, #0]
 8000db8:	230f      	movs	r3, #15
 8000dba:	18fb      	adds	r3, r7, r3
 8000dbc:	781b      	ldrb	r3, [r3, #0]
 8000dbe:	0018      	movs	r0, r3
 8000dc0:	46bd      	mov	sp, r7
 8000dc2:	b004      	add	sp, #16
 8000dc4:	bd80      	pop	{r7, pc}

08000dc6 <HAL_GPIO_WritePin>:
 8000dc6:	b580      	push	{r7, lr}
 8000dc8:	b082      	sub	sp, #8
 8000dca:	af00      	add	r7, sp, #0
 8000dcc:	6078      	str	r0, [r7, #4]
 8000dce:	0008      	movs	r0, r1
 8000dd0:	0011      	movs	r1, r2
 8000dd2:	1cbb      	adds	r3, r7, #2
 8000dd4:	1c02      	adds	r2, r0, #0
 8000dd6:	801a      	strh	r2, [r3, #0]
 8000dd8:	1c7b      	adds	r3, r7, #1
 8000dda:	1c0a      	adds	r2, r1, #0
 8000ddc:	701a      	strb	r2, [r3, #0]
 8000dde:	1c7b      	adds	r3, r7, #1
 8000de0:	781b      	ldrb	r3, [r3, #0]
 8000de2:	2b00      	cmp	r3, #0
 8000de4:	d004      	beq.n	8000df0 <HAL_GPIO_WritePin+0x2a>
 8000de6:	1cbb      	adds	r3, r7, #2
 8000de8:	881a      	ldrh	r2, [r3, #0]
 8000dea:	687b      	ldr	r3, [r7, #4]
 8000dec:	619a      	str	r2, [r3, #24]
 8000dee:	e003      	b.n	8000df8 <HAL_GPIO_WritePin+0x32>
 8000df0:	1cbb      	adds	r3, r7, #2
 8000df2:	881a      	ldrh	r2, [r3, #0]
 8000df4:	687b      	ldr	r3, [r7, #4]
 8000df6:	629a      	str	r2, [r3, #40]	; 0x28
 8000df8:	46c0      	nop			; (mov r8, r8)
 8000dfa:	46bd      	mov	sp, r7
 8000dfc:	b002      	add	sp, #8
 8000dfe:	bd80      	pop	{r7, pc}

08000e00 <HAL_GPIO_EXTI_IRQHandler>:
 8000e00:	b580      	push	{r7, lr}
 8000e02:	b082      	sub	sp, #8
 8000e04:	af00      	add	r7, sp, #0
 8000e06:	0002      	movs	r2, r0
 8000e08:	1dbb      	adds	r3, r7, #6
 8000e0a:	801a      	strh	r2, [r3, #0]
 8000e0c:	4b09      	ldr	r3, [pc, #36]	; (8000e34 <HAL_GPIO_EXTI_IRQHandler+0x34>)
 8000e0e:	695b      	ldr	r3, [r3, #20]
 8000e10:	1dba      	adds	r2, r7, #6
 8000e12:	8812      	ldrh	r2, [r2, #0]
 8000e14:	4013      	ands	r3, r2
 8000e16:	d008      	beq.n	8000e2a <HAL_GPIO_EXTI_IRQHandler+0x2a>
 8000e18:	4b06      	ldr	r3, [pc, #24]	; (8000e34 <HAL_GPIO_EXTI_IRQHandler+0x34>)
 8000e1a:	1dba      	adds	r2, r7, #6
 8000e1c:	8812      	ldrh	r2, [r2, #0]
 8000e1e:	615a      	str	r2, [r3, #20]
 8000e20:	1dbb      	adds	r3, r7, #6
 8000e22:	881b      	ldrh	r3, [r3, #0]
 8000e24:	0018      	movs	r0, r3
 8000e26:	f7ff f9fb 	bl	8000220 <HAL_GPIO_EXTI_Callback>
 8000e2a:	46c0      	nop			; (mov r8, r8)
 8000e2c:	46bd      	mov	sp, r7
 8000e2e:	b002      	add	sp, #8
 8000e30:	bd80      	pop	{r7, pc}
 8000e32:	46c0      	nop			; (mov r8, r8)
 8000e34:	40010400 	.word	0x40010400

08000e38 <HAL_RCC_OscConfig>:
 8000e38:	b580      	push	{r7, lr}
 8000e3a:	b088      	sub	sp, #32
 8000e3c:	af00      	add	r7, sp, #0
 8000e3e:	6078      	str	r0, [r7, #4]
 8000e40:	687b      	ldr	r3, [r7, #4]
 8000e42:	2b00      	cmp	r3, #0
 8000e44:	d101      	bne.n	8000e4a <HAL_RCC_OscConfig+0x12>
 8000e46:	2301      	movs	r3, #1
 8000e48:	e301      	b.n	800144e <HAL_RCC_OscConfig+0x616>
 8000e4a:	687b      	ldr	r3, [r7, #4]
 8000e4c:	681b      	ldr	r3, [r3, #0]
 8000e4e:	2201      	movs	r2, #1
 8000e50:	4013      	ands	r3, r2
 8000e52:	d100      	bne.n	8000e56 <HAL_RCC_OscConfig+0x1e>
 8000e54:	e08d      	b.n	8000f72 <HAL_RCC_OscConfig+0x13a>
 8000e56:	4bc3      	ldr	r3, [pc, #780]	; (8001164 <HAL_RCC_OscConfig+0x32c>)
 8000e58:	685b      	ldr	r3, [r3, #4]
 8000e5a:	220c      	movs	r2, #12
 8000e5c:	4013      	ands	r3, r2
 8000e5e:	2b04      	cmp	r3, #4
 8000e60:	d00e      	beq.n	8000e80 <HAL_RCC_OscConfig+0x48>
 8000e62:	4bc0      	ldr	r3, [pc, #768]	; (8001164 <HAL_RCC_OscConfig+0x32c>)
 8000e64:	685b      	ldr	r3, [r3, #4]
 8000e66:	220c      	movs	r2, #12
 8000e68:	4013      	ands	r3, r2
 8000e6a:	2b08      	cmp	r3, #8
 8000e6c:	d116      	bne.n	8000e9c <HAL_RCC_OscConfig+0x64>
 8000e6e:	4bbd      	ldr	r3, [pc, #756]	; (8001164 <HAL_RCC_OscConfig+0x32c>)
 8000e70:	685a      	ldr	r2, [r3, #4]
 8000e72:	2380      	movs	r3, #128	; 0x80
 8000e74:	025b      	lsls	r3, r3, #9
 8000e76:	401a      	ands	r2, r3
 8000e78:	2380      	movs	r3, #128	; 0x80
 8000e7a:	025b      	lsls	r3, r3, #9
 8000e7c:	429a      	cmp	r2, r3
 8000e7e:	d10d      	bne.n	8000e9c <HAL_RCC_OscConfig+0x64>
 8000e80:	4bb8      	ldr	r3, [pc, #736]	; (8001164 <HAL_RCC_OscConfig+0x32c>)
 8000e82:	681a      	ldr	r2, [r3, #0]
 8000e84:	2380      	movs	r3, #128	; 0x80
 8000e86:	029b      	lsls	r3, r3, #10
 8000e88:	4013      	ands	r3, r2
 8000e8a:	d100      	bne.n	8000e8e <HAL_RCC_OscConfig+0x56>
 8000e8c:	e070      	b.n	8000f70 <HAL_RCC_OscConfig+0x138>
 8000e8e:	687b      	ldr	r3, [r7, #4]
 8000e90:	685b      	ldr	r3, [r3, #4]
 8000e92:	2b00      	cmp	r3, #0
 8000e94:	d000      	beq.n	8000e98 <HAL_RCC_OscConfig+0x60>
 8000e96:	e06b      	b.n	8000f70 <HAL_RCC_OscConfig+0x138>
 8000e98:	2301      	movs	r3, #1
 8000e9a:	e2d8      	b.n	800144e <HAL_RCC_OscConfig+0x616>
 8000e9c:	687b      	ldr	r3, [r7, #4]
 8000e9e:	685b      	ldr	r3, [r3, #4]
 8000ea0:	2b01      	cmp	r3, #1
 8000ea2:	d107      	bne.n	8000eb4 <HAL_RCC_OscConfig+0x7c>
 8000ea4:	4baf      	ldr	r3, [pc, #700]	; (8001164 <HAL_RCC_OscConfig+0x32c>)
 8000ea6:	681a      	ldr	r2, [r3, #0]
 8000ea8:	4bae      	ldr	r3, [pc, #696]	; (8001164 <HAL_RCC_OscConfig+0x32c>)
 8000eaa:	2180      	movs	r1, #128	; 0x80
 8000eac:	0249      	lsls	r1, r1, #9
 8000eae:	430a      	orrs	r2, r1
 8000eb0:	601a      	str	r2, [r3, #0]
 8000eb2:	e02f      	b.n	8000f14 <HAL_RCC_OscConfig+0xdc>
 8000eb4:	687b      	ldr	r3, [r7, #4]
 8000eb6:	685b      	ldr	r3, [r3, #4]
 8000eb8:	2b00      	cmp	r3, #0
 8000eba:	d10c      	bne.n	8000ed6 <HAL_RCC_OscConfig+0x9e>
 8000ebc:	4ba9      	ldr	r3, [pc, #676]	; (8001164 <HAL_RCC_OscConfig+0x32c>)
 8000ebe:	681a      	ldr	r2, [r3, #0]
 8000ec0:	4ba8      	ldr	r3, [pc, #672]	; (8001164 <HAL_RCC_OscConfig+0x32c>)
 8000ec2:	49a9      	ldr	r1, [pc, #676]	; (8001168 <HAL_RCC_OscConfig+0x330>)
 8000ec4:	400a      	ands	r2, r1
 8000ec6:	601a      	str	r2, [r3, #0]
 8000ec8:	4ba6      	ldr	r3, [pc, #664]	; (8001164 <HAL_RCC_OscConfig+0x32c>)
 8000eca:	681a      	ldr	r2, [r3, #0]
 8000ecc:	4ba5      	ldr	r3, [pc, #660]	; (8001164 <HAL_RCC_OscConfig+0x32c>)
 8000ece:	49a7      	ldr	r1, [pc, #668]	; (800116c <HAL_RCC_OscConfig+0x334>)
 8000ed0:	400a      	ands	r2, r1
 8000ed2:	601a      	str	r2, [r3, #0]
 8000ed4:	e01e      	b.n	8000f14 <HAL_RCC_OscConfig+0xdc>
 8000ed6:	687b      	ldr	r3, [r7, #4]
 8000ed8:	685b      	ldr	r3, [r3, #4]
 8000eda:	2b05      	cmp	r3, #5
 8000edc:	d10e      	bne.n	8000efc <HAL_RCC_OscConfig+0xc4>
 8000ede:	4ba1      	ldr	r3, [pc, #644]	; (8001164 <HAL_RCC_OscConfig+0x32c>)
 8000ee0:	681a      	ldr	r2, [r3, #0]
 8000ee2:	4ba0      	ldr	r3, [pc, #640]	; (8001164 <HAL_RCC_OscConfig+0x32c>)
 8000ee4:	2180      	movs	r1, #128	; 0x80
 8000ee6:	02c9      	lsls	r1, r1, #11
 8000ee8:	430a      	orrs	r2, r1
 8000eea:	601a      	str	r2, [r3, #0]
 8000eec:	4b9d      	ldr	r3, [pc, #628]	; (8001164 <HAL_RCC_OscConfig+0x32c>)
 8000eee:	681a      	ldr	r2, [r3, #0]
 8000ef0:	4b9c      	ldr	r3, [pc, #624]	; (8001164 <HAL_RCC_OscConfig+0x32c>)
 8000ef2:	2180      	movs	r1, #128	; 0x80
 8000ef4:	0249      	lsls	r1, r1, #9
 8000ef6:	430a      	orrs	r2, r1
 8000ef8:	601a      	str	r2, [r3, #0]
 8000efa:	e00b      	b.n	8000f14 <HAL_RCC_OscConfig+0xdc>
 8000efc:	4b99      	ldr	r3, [pc, #612]	; (8001164 <HAL_RCC_OscConfig+0x32c>)
 8000efe:	681a      	ldr	r2, [r3, #0]
 8000f00:	4b98      	ldr	r3, [pc, #608]	; (8001164 <HAL_RCC_OscConfig+0x32c>)
 8000f02:	4999      	ldr	r1, [pc, #612]	; (8001168 <HAL_RCC_OscConfig+0x330>)
 8000f04:	400a      	ands	r2, r1
 8000f06:	601a      	str	r2, [r3, #0]
 8000f08:	4b96      	ldr	r3, [pc, #600]	; (8001164 <HAL_RCC_OscConfig+0x32c>)
 8000f0a:	681a      	ldr	r2, [r3, #0]
 8000f0c:	4b95      	ldr	r3, [pc, #596]	; (8001164 <HAL_RCC_OscConfig+0x32c>)
 8000f0e:	4997      	ldr	r1, [pc, #604]	; (800116c <HAL_RCC_OscConfig+0x334>)
 8000f10:	400a      	ands	r2, r1
 8000f12:	601a      	str	r2, [r3, #0]
 8000f14:	687b      	ldr	r3, [r7, #4]
 8000f16:	685b      	ldr	r3, [r3, #4]
 8000f18:	2b00      	cmp	r3, #0
 8000f1a:	d014      	beq.n	8000f46 <HAL_RCC_OscConfig+0x10e>
 8000f1c:	f7ff fcba 	bl	8000894 <HAL_GetTick>
 8000f20:	0003      	movs	r3, r0
 8000f22:	61bb      	str	r3, [r7, #24]
 8000f24:	e008      	b.n	8000f38 <HAL_RCC_OscConfig+0x100>
 8000f26:	f7ff fcb5 	bl	8000894 <HAL_GetTick>
 8000f2a:	0002      	movs	r2, r0
 8000f2c:	69bb      	ldr	r3, [r7, #24]
 8000f2e:	1ad3      	subs	r3, r2, r3
 8000f30:	2b64      	cmp	r3, #100	; 0x64
 8000f32:	d901      	bls.n	8000f38 <HAL_RCC_OscConfig+0x100>
 8000f34:	2303      	movs	r3, #3
 8000f36:	e28a      	b.n	800144e <HAL_RCC_OscConfig+0x616>
 8000f38:	4b8a      	ldr	r3, [pc, #552]	; (8001164 <HAL_RCC_OscConfig+0x32c>)
 8000f3a:	681a      	ldr	r2, [r3, #0]
 8000f3c:	2380      	movs	r3, #128	; 0x80
 8000f3e:	029b      	lsls	r3, r3, #10
 8000f40:	4013      	ands	r3, r2
 8000f42:	d0f0      	beq.n	8000f26 <HAL_RCC_OscConfig+0xee>
 8000f44:	e015      	b.n	8000f72 <HAL_RCC_OscConfig+0x13a>
 8000f46:	f7ff fca5 	bl	8000894 <HAL_GetTick>
 8000f4a:	0003      	movs	r3, r0
 8000f4c:	61bb      	str	r3, [r7, #24]
 8000f4e:	e008      	b.n	8000f62 <HAL_RCC_OscConfig+0x12a>
 8000f50:	f7ff fca0 	bl	8000894 <HAL_GetTick>
 8000f54:	0002      	movs	r2, r0
 8000f56:	69bb      	ldr	r3, [r7, #24]
 8000f58:	1ad3      	subs	r3, r2, r3
 8000f5a:	2b64      	cmp	r3, #100	; 0x64
 8000f5c:	d901      	bls.n	8000f62 <HAL_RCC_OscConfig+0x12a>
 8000f5e:	2303      	movs	r3, #3
 8000f60:	e275      	b.n	800144e <HAL_RCC_OscConfig+0x616>
 8000f62:	4b80      	ldr	r3, [pc, #512]	; (8001164 <HAL_RCC_OscConfig+0x32c>)
 8000f64:	681a      	ldr	r2, [r3, #0]
 8000f66:	2380      	movs	r3, #128	; 0x80
 8000f68:	029b      	lsls	r3, r3, #10
 8000f6a:	4013      	ands	r3, r2
 8000f6c:	d1f0      	bne.n	8000f50 <HAL_RCC_OscConfig+0x118>
 8000f6e:	e000      	b.n	8000f72 <HAL_RCC_OscConfig+0x13a>
 8000f70:	46c0      	nop			; (mov r8, r8)
 8000f72:	687b      	ldr	r3, [r7, #4]
 8000f74:	681b      	ldr	r3, [r3, #0]
 8000f76:	2202      	movs	r2, #2
 8000f78:	4013      	ands	r3, r2
 8000f7a:	d100      	bne.n	8000f7e <HAL_RCC_OscConfig+0x146>
 8000f7c:	e069      	b.n	8001052 <HAL_RCC_OscConfig+0x21a>
 8000f7e:	4b79      	ldr	r3, [pc, #484]	; (8001164 <HAL_RCC_OscConfig+0x32c>)
 8000f80:	685b      	ldr	r3, [r3, #4]
 8000f82:	220c      	movs	r2, #12
 8000f84:	4013      	ands	r3, r2
 8000f86:	d00b      	beq.n	8000fa0 <HAL_RCC_OscConfig+0x168>
 8000f88:	4b76      	ldr	r3, [pc, #472]	; (8001164 <HAL_RCC_OscConfig+0x32c>)
 8000f8a:	685b      	ldr	r3, [r3, #4]
 8000f8c:	220c      	movs	r2, #12
 8000f8e:	4013      	ands	r3, r2
 8000f90:	2b08      	cmp	r3, #8
 8000f92:	d11c      	bne.n	8000fce <HAL_RCC_OscConfig+0x196>
 8000f94:	4b73      	ldr	r3, [pc, #460]	; (8001164 <HAL_RCC_OscConfig+0x32c>)
 8000f96:	685a      	ldr	r2, [r3, #4]
 8000f98:	2380      	movs	r3, #128	; 0x80
 8000f9a:	025b      	lsls	r3, r3, #9
 8000f9c:	4013      	ands	r3, r2
 8000f9e:	d116      	bne.n	8000fce <HAL_RCC_OscConfig+0x196>
 8000fa0:	4b70      	ldr	r3, [pc, #448]	; (8001164 <HAL_RCC_OscConfig+0x32c>)
 8000fa2:	681b      	ldr	r3, [r3, #0]
 8000fa4:	2202      	movs	r2, #2
 8000fa6:	4013      	ands	r3, r2
 8000fa8:	d005      	beq.n	8000fb6 <HAL_RCC_OscConfig+0x17e>
 8000faa:	687b      	ldr	r3, [r7, #4]
 8000fac:	68db      	ldr	r3, [r3, #12]
 8000fae:	2b01      	cmp	r3, #1
 8000fb0:	d001      	beq.n	8000fb6 <HAL_RCC_OscConfig+0x17e>
 8000fb2:	2301      	movs	r3, #1
 8000fb4:	e24b      	b.n	800144e <HAL_RCC_OscConfig+0x616>
 8000fb6:	4b6b      	ldr	r3, [pc, #428]	; (8001164 <HAL_RCC_OscConfig+0x32c>)
 8000fb8:	681b      	ldr	r3, [r3, #0]
 8000fba:	22f8      	movs	r2, #248	; 0xf8
 8000fbc:	4393      	bics	r3, r2
 8000fbe:	0019      	movs	r1, r3
 8000fc0:	687b      	ldr	r3, [r7, #4]
 8000fc2:	691b      	ldr	r3, [r3, #16]
 8000fc4:	00da      	lsls	r2, r3, #3
 8000fc6:	4b67      	ldr	r3, [pc, #412]	; (8001164 <HAL_RCC_OscConfig+0x32c>)
 8000fc8:	430a      	orrs	r2, r1
 8000fca:	601a      	str	r2, [r3, #0]
 8000fcc:	e041      	b.n	8001052 <HAL_RCC_OscConfig+0x21a>
 8000fce:	687b      	ldr	r3, [r7, #4]
 8000fd0:	68db      	ldr	r3, [r3, #12]
 8000fd2:	2b00      	cmp	r3, #0
 8000fd4:	d024      	beq.n	8001020 <HAL_RCC_OscConfig+0x1e8>
 8000fd6:	4b63      	ldr	r3, [pc, #396]	; (8001164 <HAL_RCC_OscConfig+0x32c>)
 8000fd8:	681a      	ldr	r2, [r3, #0]
 8000fda:	4b62      	ldr	r3, [pc, #392]	; (8001164 <HAL_RCC_OscConfig+0x32c>)
 8000fdc:	2101      	movs	r1, #1
 8000fde:	430a      	orrs	r2, r1
 8000fe0:	601a      	str	r2, [r3, #0]
 8000fe2:	f7ff fc57 	bl	8000894 <HAL_GetTick>
 8000fe6:	0003      	movs	r3, r0
 8000fe8:	61bb      	str	r3, [r7, #24]
 8000fea:	e008      	b.n	8000ffe <HAL_RCC_OscConfig+0x1c6>
 8000fec:	f7ff fc52 	bl	8000894 <HAL_GetTick>
 8000ff0:	0002      	movs	r2, r0
 8000ff2:	69bb      	ldr	r3, [r7, #24]
 8000ff4:	1ad3      	subs	r3, r2, r3
 8000ff6:	2b02      	cmp	r3, #2
 8000ff8:	d901      	bls.n	8000ffe <HAL_RCC_OscConfig+0x1c6>
 8000ffa:	2303      	movs	r3, #3
 8000ffc:	e227      	b.n	800144e <HAL_RCC_OscConfig+0x616>
 8000ffe:	4b59      	ldr	r3, [pc, #356]	; (8001164 <HAL_RCC_OscConfig+0x32c>)
 8001000:	681b      	ldr	r3, [r3, #0]
 8001002:	2202      	movs	r2, #2
 8001004:	4013      	ands	r3, r2
 8001006:	d0f1      	beq.n	8000fec <HAL_RCC_OscConfig+0x1b4>
 8001008:	4b56      	ldr	r3, [pc, #344]	; (8001164 <HAL_RCC_OscConfig+0x32c>)
 800100a:	681b      	ldr	r3, [r3, #0]
 800100c:	22f8      	movs	r2, #248	; 0xf8
 800100e:	4393      	bics	r3, r2
 8001010:	0019      	movs	r1, r3
 8001012:	687b      	ldr	r3, [r7, #4]
 8001014:	691b      	ldr	r3, [r3, #16]
 8001016:	00da      	lsls	r2, r3, #3
 8001018:	4b52      	ldr	r3, [pc, #328]	; (8001164 <HAL_RCC_OscConfig+0x32c>)
 800101a:	430a      	orrs	r2, r1
 800101c:	601a      	str	r2, [r3, #0]
 800101e:	e018      	b.n	8001052 <HAL_RCC_OscConfig+0x21a>
 8001020:	4b50      	ldr	r3, [pc, #320]	; (8001164 <HAL_RCC_OscConfig+0x32c>)
 8001022:	681a      	ldr	r2, [r3, #0]
 8001024:	4b4f      	ldr	r3, [pc, #316]	; (8001164 <HAL_RCC_OscConfig+0x32c>)
 8001026:	2101      	movs	r1, #1
 8001028:	438a      	bics	r2, r1
 800102a:	601a      	str	r2, [r3, #0]
 800102c:	f7ff fc32 	bl	8000894 <HAL_GetTick>
 8001030:	0003      	movs	r3, r0
 8001032:	61bb      	str	r3, [r7, #24]
 8001034:	e008      	b.n	8001048 <HAL_RCC_OscConfig+0x210>
 8001036:	f7ff fc2d 	bl	8000894 <HAL_GetTick>
 800103a:	0002      	movs	r2, r0
 800103c:	69bb      	ldr	r3, [r7, #24]
 800103e:	1ad3      	subs	r3, r2, r3
 8001040:	2b02      	cmp	r3, #2
 8001042:	d901      	bls.n	8001048 <HAL_RCC_OscConfig+0x210>
 8001044:	2303      	movs	r3, #3
 8001046:	e202      	b.n	800144e <HAL_RCC_OscConfig+0x616>
 8001048:	4b46      	ldr	r3, [pc, #280]	; (8001164 <HAL_RCC_OscConfig+0x32c>)
 800104a:	681b      	ldr	r3, [r3, #0]
 800104c:	2202      	movs	r2, #2
 800104e:	4013      	ands	r3, r2
 8001050:	d1f1      	bne.n	8001036 <HAL_RCC_OscConfig+0x1fe>
 8001052:	687b      	ldr	r3, [r7, #4]
 8001054:	681b      	ldr	r3, [r3, #0]
 8001056:	2208      	movs	r2, #8
 8001058:	4013      	ands	r3, r2
 800105a:	d036      	beq.n	80010ca <HAL_RCC_OscConfig+0x292>
 800105c:	687b      	ldr	r3, [r7, #4]
 800105e:	69db      	ldr	r3, [r3, #28]
 8001060:	2b00      	cmp	r3, #0
 8001062:	d019      	beq.n	8001098 <HAL_RCC_OscConfig+0x260>
 8001064:	4b3f      	ldr	r3, [pc, #252]	; (8001164 <HAL_RCC_OscConfig+0x32c>)
 8001066:	6a5a      	ldr	r2, [r3, #36]	; 0x24
 8001068:	4b3e      	ldr	r3, [pc, #248]	; (8001164 <HAL_RCC_OscConfig+0x32c>)
 800106a:	2101      	movs	r1, #1
 800106c:	430a      	orrs	r2, r1
 800106e:	625a      	str	r2, [r3, #36]	; 0x24
 8001070:	f7ff fc10 	bl	8000894 <HAL_GetTick>
 8001074:	0003      	movs	r3, r0
 8001076:	61bb      	str	r3, [r7, #24]
 8001078:	e008      	b.n	800108c <HAL_RCC_OscConfig+0x254>
 800107a:	f7ff fc0b 	bl	8000894 <HAL_GetTick>
 800107e:	0002      	movs	r2, r0
 8001080:	69bb      	ldr	r3, [r7, #24]
 8001082:	1ad3      	subs	r3, r2, r3
 8001084:	2b02      	cmp	r3, #2
 8001086:	d901      	bls.n	800108c <HAL_RCC_OscConfig+0x254>
 8001088:	2303      	movs	r3, #3
 800108a:	e1e0      	b.n	800144e <HAL_RCC_OscConfig+0x616>
 800108c:	4b35      	ldr	r3, [pc, #212]	; (8001164 <HAL_RCC_OscConfig+0x32c>)
 800108e:	6a5b      	ldr	r3, [r3, #36]	; 0x24
 8001090:	2202      	movs	r2, #2
 8001092:	4013      	ands	r3, r2
 8001094:	d0f1      	beq.n	800107a <HAL_RCC_OscConfig+0x242>
 8001096:	e018      	b.n	80010ca <HAL_RCC_OscConfig+0x292>
 8001098:	4b32      	ldr	r3, [pc, #200]	; (8001164 <HAL_RCC_OscConfig+0x32c>)
 800109a:	6a5a      	ldr	r2, [r3, #36]	; 0x24
 800109c:	4b31      	ldr	r3, [pc, #196]	; (8001164 <HAL_RCC_OscConfig+0x32c>)
 800109e:	2101      	movs	r1, #1
 80010a0:	438a      	bics	r2, r1
 80010a2:	625a      	str	r2, [r3, #36]	; 0x24
 80010a4:	f7ff fbf6 	bl	8000894 <HAL_GetTick>
 80010a8:	0003      	movs	r3, r0
 80010aa:	61bb      	str	r3, [r7, #24]
 80010ac:	e008      	b.n	80010c0 <HAL_RCC_OscConfig+0x288>
 80010ae:	f7ff fbf1 	bl	8000894 <HAL_GetTick>
 80010b2:	0002      	movs	r2, r0
 80010b4:	69bb      	ldr	r3, [r7, #24]
 80010b6:	1ad3      	subs	r3, r2, r3
 80010b8:	2b02      	cmp	r3, #2
 80010ba:	d901      	bls.n	80010c0 <HAL_RCC_OscConfig+0x288>
 80010bc:	2303      	movs	r3, #3
 80010be:	e1c6      	b.n	800144e <HAL_RCC_OscConfig+0x616>
 80010c0:	4b28      	ldr	r3, [pc, #160]	; (8001164 <HAL_RCC_OscConfig+0x32c>)
 80010c2:	6a5b      	ldr	r3, [r3, #36]	; 0x24
 80010c4:	2202      	movs	r2, #2
 80010c6:	4013      	ands	r3, r2
 80010c8:	d1f1      	bne.n	80010ae <HAL_RCC_OscConfig+0x276>
 80010ca:	687b      	ldr	r3, [r7, #4]
 80010cc:	681b      	ldr	r3, [r3, #0]
 80010ce:	2204      	movs	r2, #4
 80010d0:	4013      	ands	r3, r2
 80010d2:	d100      	bne.n	80010d6 <HAL_RCC_OscConfig+0x29e>
 80010d4:	e0b4      	b.n	8001240 <HAL_RCC_OscConfig+0x408>
 80010d6:	201f      	movs	r0, #31
 80010d8:	183b      	adds	r3, r7, r0
 80010da:	2200      	movs	r2, #0
 80010dc:	701a      	strb	r2, [r3, #0]
 80010de:	4b21      	ldr	r3, [pc, #132]	; (8001164 <HAL_RCC_OscConfig+0x32c>)
 80010e0:	69da      	ldr	r2, [r3, #28]
 80010e2:	2380      	movs	r3, #128	; 0x80
 80010e4:	055b      	lsls	r3, r3, #21
 80010e6:	4013      	ands	r3, r2
 80010e8:	d110      	bne.n	800110c <HAL_RCC_OscConfig+0x2d4>
 80010ea:	4b1e      	ldr	r3, [pc, #120]	; (8001164 <HAL_RCC_OscConfig+0x32c>)
 80010ec:	69da      	ldr	r2, [r3, #28]
 80010ee:	4b1d      	ldr	r3, [pc, #116]	; (8001164 <HAL_RCC_OscConfig+0x32c>)
 80010f0:	2180      	movs	r1, #128	; 0x80
 80010f2:	0549      	lsls	r1, r1, #21
 80010f4:	430a      	orrs	r2, r1
 80010f6:	61da      	str	r2, [r3, #28]
 80010f8:	4b1a      	ldr	r3, [pc, #104]	; (8001164 <HAL_RCC_OscConfig+0x32c>)
 80010fa:	69da      	ldr	r2, [r3, #28]
 80010fc:	2380      	movs	r3, #128	; 0x80
 80010fe:	055b      	lsls	r3, r3, #21
 8001100:	4013      	ands	r3, r2
 8001102:	60fb      	str	r3, [r7, #12]
 8001104:	68fb      	ldr	r3, [r7, #12]
 8001106:	183b      	adds	r3, r7, r0
 8001108:	2201      	movs	r2, #1
 800110a:	701a      	strb	r2, [r3, #0]
 800110c:	4b18      	ldr	r3, [pc, #96]	; (8001170 <HAL_RCC_OscConfig+0x338>)
 800110e:	681a      	ldr	r2, [r3, #0]
 8001110:	2380      	movs	r3, #128	; 0x80
 8001112:	005b      	lsls	r3, r3, #1
 8001114:	4013      	ands	r3, r2
 8001116:	d11a      	bne.n	800114e <HAL_RCC_OscConfig+0x316>
 8001118:	4b15      	ldr	r3, [pc, #84]	; (8001170 <HAL_RCC_OscConfig+0x338>)
 800111a:	681a      	ldr	r2, [r3, #0]
 800111c:	4b14      	ldr	r3, [pc, #80]	; (8001170 <HAL_RCC_OscConfig+0x338>)
 800111e:	2180      	movs	r1, #128	; 0x80
 8001120:	0049      	lsls	r1, r1, #1
 8001122:	430a      	orrs	r2, r1
 8001124:	601a      	str	r2, [r3, #0]
 8001126:	f7ff fbb5 	bl	8000894 <HAL_GetTick>
 800112a:	0003      	movs	r3, r0
 800112c:	61bb      	str	r3, [r7, #24]
 800112e:	e008      	b.n	8001142 <HAL_RCC_OscConfig+0x30a>
 8001130:	f7ff fbb0 	bl	8000894 <HAL_GetTick>
 8001134:	0002      	movs	r2, r0
 8001136:	69bb      	ldr	r3, [r7, #24]
 8001138:	1ad3      	subs	r3, r2, r3
 800113a:	2b64      	cmp	r3, #100	; 0x64
 800113c:	d901      	bls.n	8001142 <HAL_RCC_OscConfig+0x30a>
 800113e:	2303      	movs	r3, #3
 8001140:	e185      	b.n	800144e <HAL_RCC_OscConfig+0x616>
 8001142:	4b0b      	ldr	r3, [pc, #44]	; (8001170 <HAL_RCC_OscConfig+0x338>)
 8001144:	681a      	ldr	r2, [r3, #0]
 8001146:	2380      	movs	r3, #128	; 0x80
 8001148:	005b      	lsls	r3, r3, #1
 800114a:	4013      	ands	r3, r2
 800114c:	d0f0      	beq.n	8001130 <HAL_RCC_OscConfig+0x2f8>
 800114e:	687b      	ldr	r3, [r7, #4]
 8001150:	689b      	ldr	r3, [r3, #8]
 8001152:	2b01      	cmp	r3, #1
 8001154:	d10e      	bne.n	8001174 <HAL_RCC_OscConfig+0x33c>
 8001156:	4b03      	ldr	r3, [pc, #12]	; (8001164 <HAL_RCC_OscConfig+0x32c>)
 8001158:	6a1a      	ldr	r2, [r3, #32]
 800115a:	4b02      	ldr	r3, [pc, #8]	; (8001164 <HAL_RCC_OscConfig+0x32c>)
 800115c:	2101      	movs	r1, #1
 800115e:	430a      	orrs	r2, r1
 8001160:	621a      	str	r2, [r3, #32]
 8001162:	e035      	b.n	80011d0 <HAL_RCC_OscConfig+0x398>
 8001164:	40021000 	.word	0x40021000
 8001168:	fffeffff 	.word	0xfffeffff
 800116c:	fffbffff 	.word	0xfffbffff
 8001170:	40007000 	.word	0x40007000
 8001174:	687b      	ldr	r3, [r7, #4]
 8001176:	689b      	ldr	r3, [r3, #8]
 8001178:	2b00      	cmp	r3, #0
 800117a:	d10c      	bne.n	8001196 <HAL_RCC_OscConfig+0x35e>
 800117c:	4bb6      	ldr	r3, [pc, #728]	; (8001458 <HAL_RCC_OscConfig+0x620>)
 800117e:	6a1a      	ldr	r2, [r3, #32]
 8001180:	4bb5      	ldr	r3, [pc, #724]	; (8001458 <HAL_RCC_OscConfig+0x620>)
 8001182:	2101      	movs	r1, #1
 8001184:	438a      	bics	r2, r1
 8001186:	621a      	str	r2, [r3, #32]
 8001188:	4bb3      	ldr	r3, [pc, #716]	; (8001458 <HAL_RCC_OscConfig+0x620>)
 800118a:	6a1a      	ldr	r2, [r3, #32]
 800118c:	4bb2      	ldr	r3, [pc, #712]	; (8001458 <HAL_RCC_OscConfig+0x620>)
 800118e:	2104      	movs	r1, #4
 8001190:	438a      	bics	r2, r1
 8001192:	621a      	str	r2, [r3, #32]
 8001194:	e01c      	b.n	80011d0 <HAL_RCC_OscConfig+0x398>
 8001196:	687b      	ldr	r3, [r7, #4]
 8001198:	689b      	ldr	r3, [r3, #8]
 800119a:	2b05      	cmp	r3, #5
 800119c:	d10c      	bne.n	80011b8 <HAL_RCC_OscConfig+0x380>
 800119e:	4bae      	ldr	r3, [pc, #696]	; (8001458 <HAL_RCC_OscConfig+0x620>)
 80011a0:	6a1a      	ldr	r2, [r3, #32]
 80011a2:	4bad      	ldr	r3, [pc, #692]	; (8001458 <HAL_RCC_OscConfig+0x620>)
 80011a4:	2104      	movs	r1, #4
 80011a6:	430a      	orrs	r2, r1
 80011a8:	621a      	str	r2, [r3, #32]
 80011aa:	4bab      	ldr	r3, [pc, #684]	; (8001458 <HAL_RCC_OscConfig+0x620>)
 80011ac:	6a1a      	ldr	r2, [r3, #32]
 80011ae:	4baa      	ldr	r3, [pc, #680]	; (8001458 <HAL_RCC_OscConfig+0x620>)
 80011b0:	2101      	movs	r1, #1
 80011b2:	430a      	orrs	r2, r1
 80011b4:	621a      	str	r2, [r3, #32]
 80011b6:	e00b      	b.n	80011d0 <HAL_RCC_OscConfig+0x398>
 80011b8:	4ba7      	ldr	r3, [pc, #668]	; (8001458 <HAL_RCC_OscConfig+0x620>)
 80011ba:	6a1a      	ldr	r2, [r3, #32]
 80011bc:	4ba6      	ldr	r3, [pc, #664]	; (8001458 <HAL_RCC_OscConfig+0x620>)
 80011be:	2101      	movs	r1, #1
 80011c0:	438a      	bics	r2, r1
 80011c2:	621a      	str	r2, [r3, #32]
 80011c4:	4ba4      	ldr	r3, [pc, #656]	; (8001458 <HAL_RCC_OscConfig+0x620>)
 80011c6:	6a1a      	ldr	r2, [r3, #32]
 80011c8:	4ba3      	ldr	r3, [pc, #652]	; (8001458 <HAL_RCC_OscConfig+0x620>)
 80011ca:	2104      	movs	r1, #4
 80011cc:	438a      	bics	r2, r1
 80011ce:	621a      	str	r2, [r3, #32]
 80011d0:	687b      	ldr	r3, [r7, #4]
 80011d2:	689b      	ldr	r3, [r3, #8]
 80011d4:	2b00      	cmp	r3, #0
 80011d6:	d014      	beq.n	8001202 <HAL_RCC_OscConfig+0x3ca>
 80011d8:	f7ff fb5c 	bl	8000894 <HAL_GetTick>
 80011dc:	0003      	movs	r3, r0
 80011de:	61bb      	str	r3, [r7, #24]
 80011e0:	e009      	b.n	80011f6 <HAL_RCC_OscConfig+0x3be>
 80011e2:	f7ff fb57 	bl	8000894 <HAL_GetTick>
 80011e6:	0002      	movs	r2, r0
 80011e8:	69bb      	ldr	r3, [r7, #24]
 80011ea:	1ad3      	subs	r3, r2, r3
 80011ec:	4a9b      	ldr	r2, [pc, #620]	; (800145c <HAL_RCC_OscConfig+0x624>)
 80011ee:	4293      	cmp	r3, r2
 80011f0:	d901      	bls.n	80011f6 <HAL_RCC_OscConfig+0x3be>
 80011f2:	2303      	movs	r3, #3
 80011f4:	e12b      	b.n	800144e <HAL_RCC_OscConfig+0x616>
 80011f6:	4b98      	ldr	r3, [pc, #608]	; (8001458 <HAL_RCC_OscConfig+0x620>)
 80011f8:	6a1b      	ldr	r3, [r3, #32]
 80011fa:	2202      	movs	r2, #2
 80011fc:	4013      	ands	r3, r2
 80011fe:	d0f0      	beq.n	80011e2 <HAL_RCC_OscConfig+0x3aa>
 8001200:	e013      	b.n	800122a <HAL_RCC_OscConfig+0x3f2>
 8001202:	f7ff fb47 	bl	8000894 <HAL_GetTick>
 8001206:	0003      	movs	r3, r0
 8001208:	61bb      	str	r3, [r7, #24]
 800120a:	e009      	b.n	8001220 <HAL_RCC_OscConfig+0x3e8>
 800120c:	f7ff fb42 	bl	8000894 <HAL_GetTick>
 8001210:	0002      	movs	r2, r0
 8001212:	69bb      	ldr	r3, [r7, #24]
 8001214:	1ad3      	subs	r3, r2, r3
 8001216:	4a91      	ldr	r2, [pc, #580]	; (800145c <HAL_RCC_OscConfig+0x624>)
 8001218:	4293      	cmp	r3, r2
 800121a:	d901      	bls.n	8001220 <HAL_RCC_OscConfig+0x3e8>
 800121c:	2303      	movs	r3, #3
 800121e:	e116      	b.n	800144e <HAL_RCC_OscConfig+0x616>
 8001220:	4b8d      	ldr	r3, [pc, #564]	; (8001458 <HAL_RCC_OscConfig+0x620>)
 8001222:	6a1b      	ldr	r3, [r3, #32]
 8001224:	2202      	movs	r2, #2
 8001226:	4013      	ands	r3, r2
 8001228:	d1f0      	bne.n	800120c <HAL_RCC_OscConfig+0x3d4>
 800122a:	231f      	movs	r3, #31
 800122c:	18fb      	adds	r3, r7, r3
 800122e:	781b      	ldrb	r3, [r3, #0]
 8001230:	2b01      	cmp	r3, #1
 8001232:	d105      	bne.n	8001240 <HAL_RCC_OscConfig+0x408>
 8001234:	4b88      	ldr	r3, [pc, #544]	; (8001458 <HAL_RCC_OscConfig+0x620>)
 8001236:	69da      	ldr	r2, [r3, #28]
 8001238:	4b87      	ldr	r3, [pc, #540]	; (8001458 <HAL_RCC_OscConfig+0x620>)
 800123a:	4989      	ldr	r1, [pc, #548]	; (8001460 <HAL_RCC_OscConfig+0x628>)
 800123c:	400a      	ands	r2, r1
 800123e:	61da      	str	r2, [r3, #28]
 8001240:	687b      	ldr	r3, [r7, #4]
 8001242:	681b      	ldr	r3, [r3, #0]
 8001244:	2210      	movs	r2, #16
 8001246:	4013      	ands	r3, r2
 8001248:	d063      	beq.n	8001312 <HAL_RCC_OscConfig+0x4da>
 800124a:	687b      	ldr	r3, [r7, #4]
 800124c:	695b      	ldr	r3, [r3, #20]
 800124e:	2b01      	cmp	r3, #1
 8001250:	d12a      	bne.n	80012a8 <HAL_RCC_OscConfig+0x470>
 8001252:	4b81      	ldr	r3, [pc, #516]	; (8001458 <HAL_RCC_OscConfig+0x620>)
 8001254:	6b5a      	ldr	r2, [r3, #52]	; 0x34
 8001256:	4b80      	ldr	r3, [pc, #512]	; (8001458 <HAL_RCC_OscConfig+0x620>)
 8001258:	2104      	movs	r1, #4
 800125a:	430a      	orrs	r2, r1
 800125c:	635a      	str	r2, [r3, #52]	; 0x34
 800125e:	4b7e      	ldr	r3, [pc, #504]	; (8001458 <HAL_RCC_OscConfig+0x620>)
 8001260:	6b5a      	ldr	r2, [r3, #52]	; 0x34
 8001262:	4b7d      	ldr	r3, [pc, #500]	; (8001458 <HAL_RCC_OscConfig+0x620>)
 8001264:	2101      	movs	r1, #1
 8001266:	430a      	orrs	r2, r1
 8001268:	635a      	str	r2, [r3, #52]	; 0x34
 800126a:	f7ff fb13 	bl	8000894 <HAL_GetTick>
 800126e:	0003      	movs	r3, r0
 8001270:	61bb      	str	r3, [r7, #24]
 8001272:	e008      	b.n	8001286 <HAL_RCC_OscConfig+0x44e>
 8001274:	f7ff fb0e 	bl	8000894 <HAL_GetTick>
 8001278:	0002      	movs	r2, r0
 800127a:	69bb      	ldr	r3, [r7, #24]
 800127c:	1ad3      	subs	r3, r2, r3
 800127e:	2b02      	cmp	r3, #2
 8001280:	d901      	bls.n	8001286 <HAL_RCC_OscConfig+0x44e>
 8001282:	2303      	movs	r3, #3
 8001284:	e0e3      	b.n	800144e <HAL_RCC_OscConfig+0x616>
 8001286:	4b74      	ldr	r3, [pc, #464]	; (8001458 <HAL_RCC_OscConfig+0x620>)
 8001288:	6b5b      	ldr	r3, [r3, #52]	; 0x34
 800128a:	2202      	movs	r2, #2
 800128c:	4013      	ands	r3, r2
 800128e:	d0f1      	beq.n	8001274 <HAL_RCC_OscConfig+0x43c>
 8001290:	4b71      	ldr	r3, [pc, #452]	; (8001458 <HAL_RCC_OscConfig+0x620>)
 8001292:	6b5b      	ldr	r3, [r3, #52]	; 0x34
 8001294:	22f8      	movs	r2, #248	; 0xf8
 8001296:	4393      	bics	r3, r2
 8001298:	0019      	movs	r1, r3
 800129a:	687b      	ldr	r3, [r7, #4]
 800129c:	699b      	ldr	r3, [r3, #24]
 800129e:	00da      	lsls	r2, r3, #3
 80012a0:	4b6d      	ldr	r3, [pc, #436]	; (8001458 <HAL_RCC_OscConfig+0x620>)
 80012a2:	430a      	orrs	r2, r1
 80012a4:	635a      	str	r2, [r3, #52]	; 0x34
 80012a6:	e034      	b.n	8001312 <HAL_RCC_OscConfig+0x4da>
 80012a8:	687b      	ldr	r3, [r7, #4]
 80012aa:	695b      	ldr	r3, [r3, #20]
 80012ac:	3305      	adds	r3, #5
 80012ae:	d111      	bne.n	80012d4 <HAL_RCC_OscConfig+0x49c>
 80012b0:	4b69      	ldr	r3, [pc, #420]	; (8001458 <HAL_RCC_OscConfig+0x620>)
 80012b2:	6b5a      	ldr	r2, [r3, #52]	; 0x34
 80012b4:	4b68      	ldr	r3, [pc, #416]	; (8001458 <HAL_RCC_OscConfig+0x620>)
 80012b6:	2104      	movs	r1, #4
 80012b8:	438a      	bics	r2, r1
 80012ba:	635a      	str	r2, [r3, #52]	; 0x34
 80012bc:	4b66      	ldr	r3, [pc, #408]	; (8001458 <HAL_RCC_OscConfig+0x620>)
 80012be:	6b5b      	ldr	r3, [r3, #52]	; 0x34
 80012c0:	22f8      	movs	r2, #248	; 0xf8
 80012c2:	4393      	bics	r3, r2
 80012c4:	0019      	movs	r1, r3
 80012c6:	687b      	ldr	r3, [r7, #4]
 80012c8:	699b      	ldr	r3, [r3, #24]
 80012ca:	00da      	lsls	r2, r3, #3
 80012cc:	4b62      	ldr	r3, [pc, #392]	; (8001458 <HAL_RCC_OscConfig+0x620>)
 80012ce:	430a      	orrs	r2, r1
 80012d0:	635a      	str	r2, [r3, #52]	; 0x34
 80012d2:	e01e      	b.n	8001312 <HAL_RCC_OscConfig+0x4da>
 80012d4:	4b60      	ldr	r3, [pc, #384]	; (8001458 <HAL_RCC_OscConfig+0x620>)
 80012d6:	6b5a      	ldr	r2, [r3, #52]	; 0x34
 80012d8:	4b5f      	ldr	r3, [pc, #380]	; (8001458 <HAL_RCC_OscConfig+0x620>)
 80012da:	2104      	movs	r1, #4
 80012dc:	430a      	orrs	r2, r1
 80012de:	635a      	str	r2, [r3, #52]	; 0x34
 80012e0:	4b5d      	ldr	r3, [pc, #372]	; (8001458 <HAL_RCC_OscConfig+0x620>)
 80012e2:	6b5a      	ldr	r2, [r3, #52]	; 0x34
 80012e4:	4b5c      	ldr	r3, [pc, #368]	; (8001458 <HAL_RCC_OscConfig+0x620>)
 80012e6:	2101      	movs	r1, #1
 80012e8:	438a      	bics	r2, r1
 80012ea:	635a      	str	r2, [r3, #52]	; 0x34
 80012ec:	f7ff fad2 	bl	8000894 <HAL_GetTick>
 80012f0:	0003      	movs	r3, r0
 80012f2:	61bb      	str	r3, [r7, #24]
 80012f4:	e008      	b.n	8001308 <HAL_RCC_OscConfig+0x4d0>
 80012f6:	f7ff facd 	bl	8000894 <HAL_GetTick>
 80012fa:	0002      	movs	r2, r0
 80012fc:	69bb      	ldr	r3, [r7, #24]
 80012fe:	1ad3      	subs	r3, r2, r3
 8001300:	2b02      	cmp	r3, #2
 8001302:	d901      	bls.n	8001308 <HAL_RCC_OscConfig+0x4d0>
 8001304:	2303      	movs	r3, #3
 8001306:	e0a2      	b.n	800144e <HAL_RCC_OscConfig+0x616>
 8001308:	4b53      	ldr	r3, [pc, #332]	; (8001458 <HAL_RCC_OscConfig+0x620>)
 800130a:	6b5b      	ldr	r3, [r3, #52]	; 0x34
 800130c:	2202      	movs	r2, #2
 800130e:	4013      	ands	r3, r2
 8001310:	d1f1      	bne.n	80012f6 <HAL_RCC_OscConfig+0x4be>
 8001312:	687b      	ldr	r3, [r7, #4]
 8001314:	6a1b      	ldr	r3, [r3, #32]
 8001316:	2b00      	cmp	r3, #0
 8001318:	d100      	bne.n	800131c <HAL_RCC_OscConfig+0x4e4>
 800131a:	e097      	b.n	800144c <HAL_RCC_OscConfig+0x614>
 800131c:	4b4e      	ldr	r3, [pc, #312]	; (8001458 <HAL_RCC_OscConfig+0x620>)
 800131e:	685b      	ldr	r3, [r3, #4]
 8001320:	220c      	movs	r2, #12
 8001322:	4013      	ands	r3, r2
 8001324:	2b08      	cmp	r3, #8
 8001326:	d100      	bne.n	800132a <HAL_RCC_OscConfig+0x4f2>
 8001328:	e06b      	b.n	8001402 <HAL_RCC_OscConfig+0x5ca>
 800132a:	687b      	ldr	r3, [r7, #4]
 800132c:	6a1b      	ldr	r3, [r3, #32]
 800132e:	2b02      	cmp	r3, #2
 8001330:	d14c      	bne.n	80013cc <HAL_RCC_OscConfig+0x594>
 8001332:	4b49      	ldr	r3, [pc, #292]	; (8001458 <HAL_RCC_OscConfig+0x620>)
 8001334:	681a      	ldr	r2, [r3, #0]
 8001336:	4b48      	ldr	r3, [pc, #288]	; (8001458 <HAL_RCC_OscConfig+0x620>)
 8001338:	494a      	ldr	r1, [pc, #296]	; (8001464 <HAL_RCC_OscConfig+0x62c>)
 800133a:	400a      	ands	r2, r1
 800133c:	601a      	str	r2, [r3, #0]
 800133e:	f7ff faa9 	bl	8000894 <HAL_GetTick>
 8001342:	0003      	movs	r3, r0
 8001344:	61bb      	str	r3, [r7, #24]
 8001346:	e008      	b.n	800135a <HAL_RCC_OscConfig+0x522>
 8001348:	f7ff faa4 	bl	8000894 <HAL_GetTick>
 800134c:	0002      	movs	r2, r0
 800134e:	69bb      	ldr	r3, [r7, #24]
 8001350:	1ad3      	subs	r3, r2, r3
 8001352:	2b02      	cmp	r3, #2
 8001354:	d901      	bls.n	800135a <HAL_RCC_OscConfig+0x522>
 8001356:	2303      	movs	r3, #3
 8001358:	e079      	b.n	800144e <HAL_RCC_OscConfig+0x616>
 800135a:	4b3f      	ldr	r3, [pc, #252]	; (8001458 <HAL_RCC_OscConfig+0x620>)
 800135c:	681a      	ldr	r2, [r3, #0]
 800135e:	2380      	movs	r3, #128	; 0x80
 8001360:	049b      	lsls	r3, r3, #18
 8001362:	4013      	ands	r3, r2
 8001364:	d1f0      	bne.n	8001348 <HAL_RCC_OscConfig+0x510>
 8001366:	4b3c      	ldr	r3, [pc, #240]	; (8001458 <HAL_RCC_OscConfig+0x620>)
 8001368:	6adb      	ldr	r3, [r3, #44]	; 0x2c
 800136a:	220f      	movs	r2, #15
 800136c:	4393      	bics	r3, r2
 800136e:	0019      	movs	r1, r3
 8001370:	687b      	ldr	r3, [r7, #4]
 8001372:	6ada      	ldr	r2, [r3, #44]	; 0x2c
 8001374:	4b38      	ldr	r3, [pc, #224]	; (8001458 <HAL_RCC_OscConfig+0x620>)
 8001376:	430a      	orrs	r2, r1
 8001378:	62da      	str	r2, [r3, #44]	; 0x2c
 800137a:	4b37      	ldr	r3, [pc, #220]	; (8001458 <HAL_RCC_OscConfig+0x620>)
 800137c:	685b      	ldr	r3, [r3, #4]
 800137e:	4a3a      	ldr	r2, [pc, #232]	; (8001468 <HAL_RCC_OscConfig+0x630>)
 8001380:	4013      	ands	r3, r2
 8001382:	0019      	movs	r1, r3
 8001384:	687b      	ldr	r3, [r7, #4]
 8001386:	6a9a      	ldr	r2, [r3, #40]	; 0x28
 8001388:	687b      	ldr	r3, [r7, #4]
 800138a:	6a5b      	ldr	r3, [r3, #36]	; 0x24
 800138c:	431a      	orrs	r2, r3
 800138e:	4b32      	ldr	r3, [pc, #200]	; (8001458 <HAL_RCC_OscConfig+0x620>)
 8001390:	430a      	orrs	r2, r1
 8001392:	605a      	str	r2, [r3, #4]
 8001394:	4b30      	ldr	r3, [pc, #192]	; (8001458 <HAL_RCC_OscConfig+0x620>)
 8001396:	681a      	ldr	r2, [r3, #0]
 8001398:	4b2f      	ldr	r3, [pc, #188]	; (8001458 <HAL_RCC_OscConfig+0x620>)
 800139a:	2180      	movs	r1, #128	; 0x80
 800139c:	0449      	lsls	r1, r1, #17
 800139e:	430a      	orrs	r2, r1
 80013a0:	601a      	str	r2, [r3, #0]
 80013a2:	f7ff fa77 	bl	8000894 <HAL_GetTick>
 80013a6:	0003      	movs	r3, r0
 80013a8:	61bb      	str	r3, [r7, #24]
 80013aa:	e008      	b.n	80013be <HAL_RCC_OscConfig+0x586>
 80013ac:	f7ff fa72 	bl	8000894 <HAL_GetTick>
 80013b0:	0002      	movs	r2, r0
 80013b2:	69bb      	ldr	r3, [r7, #24]
 80013b4:	1ad3      	subs	r3, r2, r3
 80013b6:	2b02      	cmp	r3, #2
 80013b8:	d901      	bls.n	80013be <HAL_RCC_OscConfig+0x586>
 80013ba:	2303      	movs	r3, #3
 80013bc:	e047      	b.n	800144e <HAL_RCC_OscConfig+0x616>
 80013be:	4b26      	ldr	r3, [pc, #152]	; (8001458 <HAL_RCC_OscConfig+0x620>)
 80013c0:	681a      	ldr	r2, [r3, #0]
 80013c2:	2380      	movs	r3, #128	; 0x80
 80013c4:	049b      	lsls	r3, r3, #18
 80013c6:	4013      	ands	r3, r2
 80013c8:	d0f0      	beq.n	80013ac <HAL_RCC_OscConfig+0x574>
 80013ca:	e03f      	b.n	800144c <HAL_RCC_OscConfig+0x614>
 80013cc:	4b22      	ldr	r3, [pc, #136]	; (8001458 <HAL_RCC_OscConfig+0x620>)
 80013ce:	681a      	ldr	r2, [r3, #0]
 80013d0:	4b21      	ldr	r3, [pc, #132]	; (8001458 <HAL_RCC_OscConfig+0x620>)
 80013d2:	4924      	ldr	r1, [pc, #144]	; (8001464 <HAL_RCC_OscConfig+0x62c>)
 80013d4:	400a      	ands	r2, r1
 80013d6:	601a      	str	r2, [r3, #0]
 80013d8:	f7ff fa5c 	bl	8000894 <HAL_GetTick>
 80013dc:	0003      	movs	r3, r0
 80013de:	61bb      	str	r3, [r7, #24]
 80013e0:	e008      	b.n	80013f4 <HAL_RCC_OscConfig+0x5bc>
 80013e2:	f7ff fa57 	bl	8000894 <HAL_GetTick>
 80013e6:	0002      	movs	r2, r0
 80013e8:	69bb      	ldr	r3, [r7, #24]
 80013ea:	1ad3      	subs	r3, r2, r3
 80013ec:	2b02      	cmp	r3, #2
 80013ee:	d901      	bls.n	80013f4 <HAL_RCC_OscConfig+0x5bc>
 80013f0:	2303      	movs	r3, #3
 80013f2:	e02c      	b.n	800144e <HAL_RCC_OscConfig+0x616>
 80013f4:	4b18      	ldr	r3, [pc, #96]	; (8001458 <HAL_RCC_OscConfig+0x620>)
 80013f6:	681a      	ldr	r2, [r3, #0]
 80013f8:	2380      	movs	r3, #128	; 0x80
 80013fa:	049b      	lsls	r3, r3, #18
 80013fc:	4013      	ands	r3, r2
 80013fe:	d1f0      	bne.n	80013e2 <HAL_RCC_OscConfig+0x5aa>
 8001400:	e024      	b.n	800144c <HAL_RCC_OscConfig+0x614>
 8001402:	687b      	ldr	r3, [r7, #4]
 8001404:	6a1b      	ldr	r3, [r3, #32]
 8001406:	2b01      	cmp	r3, #1
 8001408:	d101      	bne.n	800140e <HAL_RCC_OscConfig+0x5d6>
 800140a:	2301      	movs	r3, #1
 800140c:	e01f      	b.n	800144e <HAL_RCC_OscConfig+0x616>
 800140e:	4b12      	ldr	r3, [pc, #72]	; (8001458 <HAL_RCC_OscConfig+0x620>)
 8001410:	685b      	ldr	r3, [r3, #4]
 8001412:	617b      	str	r3, [r7, #20]
 8001414:	4b10      	ldr	r3, [pc, #64]	; (8001458 <HAL_RCC_OscConfig+0x620>)
 8001416:	6adb      	ldr	r3, [r3, #44]	; 0x2c
 8001418:	613b      	str	r3, [r7, #16]
 800141a:	697a      	ldr	r2, [r7, #20]
 800141c:	2380      	movs	r3, #128	; 0x80
 800141e:	025b      	lsls	r3, r3, #9
 8001420:	401a      	ands	r2, r3
 8001422:	687b      	ldr	r3, [r7, #4]
 8001424:	6a5b      	ldr	r3, [r3, #36]	; 0x24
 8001426:	429a      	cmp	r2, r3
 8001428:	d10e      	bne.n	8001448 <HAL_RCC_OscConfig+0x610>
 800142a:	693b      	ldr	r3, [r7, #16]
 800142c:	220f      	movs	r2, #15
 800142e:	401a      	ands	r2, r3
 8001430:	687b      	ldr	r3, [r7, #4]
 8001432:	6adb      	ldr	r3, [r3, #44]	; 0x2c
 8001434:	429a      	cmp	r2, r3
 8001436:	d107      	bne.n	8001448 <HAL_RCC_OscConfig+0x610>
 8001438:	697a      	ldr	r2, [r7, #20]
 800143a:	23f0      	movs	r3, #240	; 0xf0
 800143c:	039b      	lsls	r3, r3, #14
 800143e:	401a      	ands	r2, r3
 8001440:	687b      	ldr	r3, [r7, #4]
 8001442:	6a9b      	ldr	r3, [r3, #40]	; 0x28
 8001444:	429a      	cmp	r2, r3
 8001446:	d001      	beq.n	800144c <HAL_RCC_OscConfig+0x614>
 8001448:	2301      	movs	r3, #1
 800144a:	e000      	b.n	800144e <HAL_RCC_OscConfig+0x616>
 800144c:	2300      	movs	r3, #0
 800144e:	0018      	movs	r0, r3
 8001450:	46bd      	mov	sp, r7
 8001452:	b008      	add	sp, #32
 8001454:	bd80      	pop	{r7, pc}
 8001456:	46c0      	nop			; (mov r8, r8)
 8001458:	40021000 	.word	0x40021000
 800145c:	00001388 	.word	0x00001388
 8001460:	efffffff 	.word	0xefffffff
 8001464:	feffffff 	.word	0xfeffffff
 8001468:	ffc2ffff 	.word	0xffc2ffff

0800146c <HAL_RCC_ClockConfig>:
 800146c:	b580      	push	{r7, lr}
 800146e:	b084      	sub	sp, #16
 8001470:	af00      	add	r7, sp, #0
 8001472:	6078      	str	r0, [r7, #4]
 8001474:	6039      	str	r1, [r7, #0]
 8001476:	687b      	ldr	r3, [r7, #4]
 8001478:	2b00      	cmp	r3, #0
 800147a:	d101      	bne.n	8001480 <HAL_RCC_ClockConfig+0x14>
 800147c:	2301      	movs	r3, #1
 800147e:	e0b3      	b.n	80015e8 <HAL_RCC_ClockConfig+0x17c>
 8001480:	4b5b      	ldr	r3, [pc, #364]	; (80015f0 <HAL_RCC_ClockConfig+0x184>)
 8001482:	681b      	ldr	r3, [r3, #0]
 8001484:	2201      	movs	r2, #1
 8001486:	4013      	ands	r3, r2
 8001488:	683a      	ldr	r2, [r7, #0]
 800148a:	429a      	cmp	r2, r3
 800148c:	d911      	bls.n	80014b2 <HAL_RCC_ClockConfig+0x46>
 800148e:	4b58      	ldr	r3, [pc, #352]	; (80015f0 <HAL_RCC_ClockConfig+0x184>)
 8001490:	681b      	ldr	r3, [r3, #0]
 8001492:	2201      	movs	r2, #1
 8001494:	4393      	bics	r3, r2
 8001496:	0019      	movs	r1, r3
 8001498:	4b55      	ldr	r3, [pc, #340]	; (80015f0 <HAL_RCC_ClockConfig+0x184>)
 800149a:	683a      	ldr	r2, [r7, #0]
 800149c:	430a      	orrs	r2, r1
 800149e:	601a      	str	r2, [r3, #0]
 80014a0:	4b53      	ldr	r3, [pc, #332]	; (80015f0 <HAL_RCC_ClockConfig+0x184>)
 80014a2:	681b      	ldr	r3, [r3, #0]
 80014a4:	2201      	movs	r2, #1
 80014a6:	4013      	ands	r3, r2
 80014a8:	683a      	ldr	r2, [r7, #0]
 80014aa:	429a      	cmp	r2, r3
 80014ac:	d001      	beq.n	80014b2 <HAL_RCC_ClockConfig+0x46>
 80014ae:	2301      	movs	r3, #1
 80014b0:	e09a      	b.n	80015e8 <HAL_RCC_ClockConfig+0x17c>
 80014b2:	687b      	ldr	r3, [r7, #4]
 80014b4:	681b      	ldr	r3, [r3, #0]
 80014b6:	2202      	movs	r2, #2
 80014b8:	4013      	ands	r3, r2
 80014ba:	d015      	beq.n	80014e8 <HAL_RCC_ClockConfig+0x7c>
 80014bc:	687b      	ldr	r3, [r7, #4]
 80014be:	681b      	ldr	r3, [r3, #0]
 80014c0:	2204      	movs	r2, #4
 80014c2:	4013      	ands	r3, r2
 80014c4:	d006      	beq.n	80014d4 <HAL_RCC_ClockConfig+0x68>
 80014c6:	4b4b      	ldr	r3, [pc, #300]	; (80015f4 <HAL_RCC_ClockConfig+0x188>)
 80014c8:	685a      	ldr	r2, [r3, #4]
 80014ca:	4b4a      	ldr	r3, [pc, #296]	; (80015f4 <HAL_RCC_ClockConfig+0x188>)
 80014cc:	21e0      	movs	r1, #224	; 0xe0
 80014ce:	00c9      	lsls	r1, r1, #3
 80014d0:	430a      	orrs	r2, r1
 80014d2:	605a      	str	r2, [r3, #4]
 80014d4:	4b47      	ldr	r3, [pc, #284]	; (80015f4 <HAL_RCC_ClockConfig+0x188>)
 80014d6:	685b      	ldr	r3, [r3, #4]
 80014d8:	22f0      	movs	r2, #240	; 0xf0
 80014da:	4393      	bics	r3, r2
 80014dc:	0019      	movs	r1, r3
 80014de:	687b      	ldr	r3, [r7, #4]
 80014e0:	689a      	ldr	r2, [r3, #8]
 80014e2:	4b44      	ldr	r3, [pc, #272]	; (80015f4 <HAL_RCC_ClockConfig+0x188>)
 80014e4:	430a      	orrs	r2, r1
 80014e6:	605a      	str	r2, [r3, #4]
 80014e8:	687b      	ldr	r3, [r7, #4]
 80014ea:	681b      	ldr	r3, [r3, #0]
 80014ec:	2201      	movs	r2, #1
 80014ee:	4013      	ands	r3, r2
 80014f0:	d040      	beq.n	8001574 <HAL_RCC_ClockConfig+0x108>
 80014f2:	687b      	ldr	r3, [r7, #4]
 80014f4:	685b      	ldr	r3, [r3, #4]
 80014f6:	2b01      	cmp	r3, #1
 80014f8:	d107      	bne.n	800150a <HAL_RCC_ClockConfig+0x9e>
 80014fa:	4b3e      	ldr	r3, [pc, #248]	; (80015f4 <HAL_RCC_ClockConfig+0x188>)
 80014fc:	681a      	ldr	r2, [r3, #0]
 80014fe:	2380      	movs	r3, #128	; 0x80
 8001500:	029b      	lsls	r3, r3, #10
 8001502:	4013      	ands	r3, r2
 8001504:	d114      	bne.n	8001530 <HAL_RCC_ClockConfig+0xc4>
 8001506:	2301      	movs	r3, #1
 8001508:	e06e      	b.n	80015e8 <HAL_RCC_ClockConfig+0x17c>
 800150a:	687b      	ldr	r3, [r7, #4]
 800150c:	685b      	ldr	r3, [r3, #4]
 800150e:	2b02      	cmp	r3, #2
 8001510:	d107      	bne.n	8001522 <HAL_RCC_ClockConfig+0xb6>
 8001512:	4b38      	ldr	r3, [pc, #224]	; (80015f4 <HAL_RCC_ClockConfig+0x188>)
 8001514:	681a      	ldr	r2, [r3, #0]
 8001516:	2380      	movs	r3, #128	; 0x80
 8001518:	049b      	lsls	r3, r3, #18
 800151a:	4013      	ands	r3, r2
 800151c:	d108      	bne.n	8001530 <HAL_RCC_ClockConfig+0xc4>
 800151e:	2301      	movs	r3, #1
 8001520:	e062      	b.n	80015e8 <HAL_RCC_ClockConfig+0x17c>
 8001522:	4b34      	ldr	r3, [pc, #208]	; (80015f4 <HAL_RCC_ClockConfig+0x188>)
 8001524:	681b      	ldr	r3, [r3, #0]
 8001526:	2202      	movs	r2, #2
 8001528:	4013      	ands	r3, r2
 800152a:	d101      	bne.n	8001530 <HAL_RCC_ClockConfig+0xc4>
 800152c:	2301      	movs	r3, #1
 800152e:	e05b      	b.n	80015e8 <HAL_RCC_ClockConfig+0x17c>
 8001530:	4b30      	ldr	r3, [pc, #192]	; (80015f4 <HAL_RCC_ClockConfig+0x188>)
 8001532:	685b      	ldr	r3, [r3, #4]
 8001534:	2203      	movs	r2, #3
 8001536:	4393      	bics	r3, r2
 8001538:	0019      	movs	r1, r3
 800153a:	687b      	ldr	r3, [r7, #4]
 800153c:	685a      	ldr	r2, [r3, #4]
 800153e:	4b2d      	ldr	r3, [pc, #180]	; (80015f4 <HAL_RCC_ClockConfig+0x188>)
 8001540:	430a      	orrs	r2, r1
 8001542:	605a      	str	r2, [r3, #4]
 8001544:	f7ff f9a6 	bl	8000894 <HAL_GetTick>
 8001548:	0003      	movs	r3, r0
 800154a:	60fb      	str	r3, [r7, #12]
 800154c:	e009      	b.n	8001562 <HAL_RCC_ClockConfig+0xf6>
 800154e:	f7ff f9a1 	bl	8000894 <HAL_GetTick>
 8001552:	0002      	movs	r2, r0
 8001554:	68fb      	ldr	r3, [r7, #12]
 8001556:	1ad3      	subs	r3, r2, r3
 8001558:	4a27      	ldr	r2, [pc, #156]	; (80015f8 <HAL_RCC_ClockConfig+0x18c>)
 800155a:	4293      	cmp	r3, r2
 800155c:	d901      	bls.n	8001562 <HAL_RCC_ClockConfig+0xf6>
 800155e:	2303      	movs	r3, #3
 8001560:	e042      	b.n	80015e8 <HAL_RCC_ClockConfig+0x17c>
 8001562:	4b24      	ldr	r3, [pc, #144]	; (80015f4 <HAL_RCC_ClockConfig+0x188>)
 8001564:	685b      	ldr	r3, [r3, #4]
 8001566:	220c      	movs	r2, #12
 8001568:	401a      	ands	r2, r3
 800156a:	687b      	ldr	r3, [r7, #4]
 800156c:	685b      	ldr	r3, [r3, #4]
 800156e:	009b      	lsls	r3, r3, #2
 8001570:	429a      	cmp	r2, r3
 8001572:	d1ec      	bne.n	800154e <HAL_RCC_ClockConfig+0xe2>
 8001574:	4b1e      	ldr	r3, [pc, #120]	; (80015f0 <HAL_RCC_ClockConfig+0x184>)
 8001576:	681b      	ldr	r3, [r3, #0]
 8001578:	2201      	movs	r2, #1
 800157a:	4013      	ands	r3, r2
 800157c:	683a      	ldr	r2, [r7, #0]
 800157e:	429a      	cmp	r2, r3
 8001580:	d211      	bcs.n	80015a6 <HAL_RCC_ClockConfig+0x13a>
 8001582:	4b1b      	ldr	r3, [pc, #108]	; (80015f0 <HAL_RCC_ClockConfig+0x184>)
 8001584:	681b      	ldr	r3, [r3, #0]
 8001586:	2201      	movs	r2, #1
 8001588:	4393      	bics	r3, r2
 800158a:	0019      	movs	r1, r3
 800158c:	4b18      	ldr	r3, [pc, #96]	; (80015f0 <HAL_RCC_ClockConfig+0x184>)
 800158e:	683a      	ldr	r2, [r7, #0]
 8001590:	430a      	orrs	r2, r1
 8001592:	601a      	str	r2, [r3, #0]
 8001594:	4b16      	ldr	r3, [pc, #88]	; (80015f0 <HAL_RCC_ClockConfig+0x184>)
 8001596:	681b      	ldr	r3, [r3, #0]
 8001598:	2201      	movs	r2, #1
 800159a:	4013      	ands	r3, r2
 800159c:	683a      	ldr	r2, [r7, #0]
 800159e:	429a      	cmp	r2, r3
 80015a0:	d001      	beq.n	80015a6 <HAL_RCC_ClockConfig+0x13a>
 80015a2:	2301      	movs	r3, #1
 80015a4:	e020      	b.n	80015e8 <HAL_RCC_ClockConfig+0x17c>
 80015a6:	687b      	ldr	r3, [r7, #4]
 80015a8:	681b      	ldr	r3, [r3, #0]
 80015aa:	2204      	movs	r2, #4
 80015ac:	4013      	ands	r3, r2
 80015ae:	d009      	beq.n	80015c4 <HAL_RCC_ClockConfig+0x158>
 80015b0:	4b10      	ldr	r3, [pc, #64]	; (80015f4 <HAL_RCC_ClockConfig+0x188>)
 80015b2:	685b      	ldr	r3, [r3, #4]
 80015b4:	4a11      	ldr	r2, [pc, #68]	; (80015fc <HAL_RCC_ClockConfig+0x190>)
 80015b6:	4013      	ands	r3, r2
 80015b8:	0019      	movs	r1, r3
 80015ba:	687b      	ldr	r3, [r7, #4]
 80015bc:	68da      	ldr	r2, [r3, #12]
 80015be:	4b0d      	ldr	r3, [pc, #52]	; (80015f4 <HAL_RCC_ClockConfig+0x188>)
 80015c0:	430a      	orrs	r2, r1
 80015c2:	605a      	str	r2, [r3, #4]
 80015c4:	f000 f820 	bl	8001608 <HAL_RCC_GetSysClockFreq>
 80015c8:	0001      	movs	r1, r0
 80015ca:	4b0a      	ldr	r3, [pc, #40]	; (80015f4 <HAL_RCC_ClockConfig+0x188>)
 80015cc:	685b      	ldr	r3, [r3, #4]
 80015ce:	091b      	lsrs	r3, r3, #4
 80015d0:	220f      	movs	r2, #15
 80015d2:	4013      	ands	r3, r2
 80015d4:	4a0a      	ldr	r2, [pc, #40]	; (8001600 <HAL_RCC_ClockConfig+0x194>)
 80015d6:	5cd3      	ldrb	r3, [r2, r3]
 80015d8:	000a      	movs	r2, r1
 80015da:	40da      	lsrs	r2, r3
 80015dc:	4b09      	ldr	r3, [pc, #36]	; (8001604 <HAL_RCC_ClockConfig+0x198>)
 80015de:	601a      	str	r2, [r3, #0]
 80015e0:	2000      	movs	r0, #0
 80015e2:	f7ff f911 	bl	8000808 <HAL_InitTick>
 80015e6:	2300      	movs	r3, #0
 80015e8:	0018      	movs	r0, r3
 80015ea:	46bd      	mov	sp, r7
 80015ec:	b004      	add	sp, #16
 80015ee:	bd80      	pop	{r7, pc}
 80015f0:	40022000 	.word	0x40022000
 80015f4:	40021000 	.word	0x40021000
 80015f8:	00001388 	.word	0x00001388
 80015fc:	fffff8ff 	.word	0xfffff8ff
 8001600:	080023dc 	.word	0x080023dc
 8001604:	20000000 	.word	0x20000000

08001608 <HAL_RCC_GetSysClockFreq>:
 8001608:	b580      	push	{r7, lr}
 800160a:	b086      	sub	sp, #24
 800160c:	af00      	add	r7, sp, #0
 800160e:	2300      	movs	r3, #0
 8001610:	60fb      	str	r3, [r7, #12]
 8001612:	2300      	movs	r3, #0
 8001614:	60bb      	str	r3, [r7, #8]
 8001616:	2300      	movs	r3, #0
 8001618:	617b      	str	r3, [r7, #20]
 800161a:	2300      	movs	r3, #0
 800161c:	607b      	str	r3, [r7, #4]
 800161e:	2300      	movs	r3, #0
 8001620:	613b      	str	r3, [r7, #16]
 8001622:	4b20      	ldr	r3, [pc, #128]	; (80016a4 <HAL_RCC_GetSysClockFreq+0x9c>)
 8001624:	685b      	ldr	r3, [r3, #4]
 8001626:	60fb      	str	r3, [r7, #12]
 8001628:	68fb      	ldr	r3, [r7, #12]
 800162a:	220c      	movs	r2, #12
 800162c:	4013      	ands	r3, r2
 800162e:	2b04      	cmp	r3, #4
 8001630:	d002      	beq.n	8001638 <HAL_RCC_GetSysClockFreq+0x30>
 8001632:	2b08      	cmp	r3, #8
 8001634:	d003      	beq.n	800163e <HAL_RCC_GetSysClockFreq+0x36>
 8001636:	e02c      	b.n	8001692 <HAL_RCC_GetSysClockFreq+0x8a>
 8001638:	4b1b      	ldr	r3, [pc, #108]	; (80016a8 <HAL_RCC_GetSysClockFreq+0xa0>)
 800163a:	613b      	str	r3, [r7, #16]
 800163c:	e02c      	b.n	8001698 <HAL_RCC_GetSysClockFreq+0x90>
 800163e:	68fb      	ldr	r3, [r7, #12]
 8001640:	0c9b      	lsrs	r3, r3, #18
 8001642:	220f      	movs	r2, #15
 8001644:	4013      	ands	r3, r2
 8001646:	4a19      	ldr	r2, [pc, #100]	; (80016ac <HAL_RCC_GetSysClockFreq+0xa4>)
 8001648:	5cd3      	ldrb	r3, [r2, r3]
 800164a:	607b      	str	r3, [r7, #4]
 800164c:	4b15      	ldr	r3, [pc, #84]	; (80016a4 <HAL_RCC_GetSysClockFreq+0x9c>)
 800164e:	6adb      	ldr	r3, [r3, #44]	; 0x2c
 8001650:	220f      	movs	r2, #15
 8001652:	4013      	ands	r3, r2
 8001654:	4a16      	ldr	r2, [pc, #88]	; (80016b0 <HAL_RCC_GetSysClockFreq+0xa8>)
 8001656:	5cd3      	ldrb	r3, [r2, r3]
 8001658:	60bb      	str	r3, [r7, #8]
 800165a:	68fa      	ldr	r2, [r7, #12]
 800165c:	2380      	movs	r3, #128	; 0x80
 800165e:	025b      	lsls	r3, r3, #9
 8001660:	4013      	ands	r3, r2
 8001662:	d009      	beq.n	8001678 <HAL_RCC_GetSysClockFreq+0x70>
 8001664:	68b9      	ldr	r1, [r7, #8]
 8001666:	4810      	ldr	r0, [pc, #64]	; (80016a8 <HAL_RCC_GetSysClockFreq+0xa0>)
 8001668:	f7fe fd4e 	bl	8000108 <__udivsi3>
 800166c:	0003      	movs	r3, r0
 800166e:	001a      	movs	r2, r3
 8001670:	687b      	ldr	r3, [r7, #4]
 8001672:	4353      	muls	r3, r2
 8001674:	617b      	str	r3, [r7, #20]
 8001676:	e009      	b.n	800168c <HAL_RCC_GetSysClockFreq+0x84>
 8001678:	6879      	ldr	r1, [r7, #4]
 800167a:	000a      	movs	r2, r1
 800167c:	0152      	lsls	r2, r2, #5
 800167e:	1a52      	subs	r2, r2, r1
 8001680:	0193      	lsls	r3, r2, #6
 8001682:	1a9b      	subs	r3, r3, r2
 8001684:	00db      	lsls	r3, r3, #3
 8001686:	185b      	adds	r3, r3, r1
 8001688:	021b      	lsls	r3, r3, #8
 800168a:	617b      	str	r3, [r7, #20]
 800168c:	697b      	ldr	r3, [r7, #20]
 800168e:	613b      	str	r3, [r7, #16]
 8001690:	e002      	b.n	8001698 <HAL_RCC_GetSysClockFreq+0x90>
 8001692:	4b05      	ldr	r3, [pc, #20]	; (80016a8 <HAL_RCC_GetSysClockFreq+0xa0>)
 8001694:	613b      	str	r3, [r7, #16]
 8001696:	46c0      	nop			; (mov r8, r8)
 8001698:	693b      	ldr	r3, [r7, #16]
 800169a:	0018      	movs	r0, r3
 800169c:	46bd      	mov	sp, r7
 800169e:	b006      	add	sp, #24
 80016a0:	bd80      	pop	{r7, pc}
 80016a2:	46c0      	nop			; (mov r8, r8)
 80016a4:	40021000 	.word	0x40021000
 80016a8:	007a1200 	.word	0x007a1200
 80016ac:	080023ec 	.word	0x080023ec
 80016b0:	080023fc 	.word	0x080023fc

080016b4 <HAL_TIM_Base_Start_IT>:
 80016b4:	b580      	push	{r7, lr}
 80016b6:	b084      	sub	sp, #16
 80016b8:	af00      	add	r7, sp, #0
 80016ba:	6078      	str	r0, [r7, #4]
 80016bc:	687b      	ldr	r3, [r7, #4]
 80016be:	223d      	movs	r2, #61	; 0x3d
 80016c0:	5c9b      	ldrb	r3, [r3, r2]
 80016c2:	b2db      	uxtb	r3, r3
 80016c4:	2b01      	cmp	r3, #1
 80016c6:	d001      	beq.n	80016cc <HAL_TIM_Base_Start_IT+0x18>
 80016c8:	2301      	movs	r3, #1
 80016ca:	e035      	b.n	8001738 <HAL_TIM_Base_Start_IT+0x84>
 80016cc:	687b      	ldr	r3, [r7, #4]
 80016ce:	223d      	movs	r2, #61	; 0x3d
 80016d0:	2102      	movs	r1, #2
 80016d2:	5499      	strb	r1, [r3, r2]
 80016d4:	687b      	ldr	r3, [r7, #4]
 80016d6:	681b      	ldr	r3, [r3, #0]
 80016d8:	68da      	ldr	r2, [r3, #12]
 80016da:	687b      	ldr	r3, [r7, #4]
 80016dc:	681b      	ldr	r3, [r3, #0]
 80016de:	2101      	movs	r1, #1
 80016e0:	430a      	orrs	r2, r1
 80016e2:	60da      	str	r2, [r3, #12]
 80016e4:	687b      	ldr	r3, [r7, #4]
 80016e6:	681b      	ldr	r3, [r3, #0]
 80016e8:	4a15      	ldr	r2, [pc, #84]	; (8001740 <HAL_TIM_Base_Start_IT+0x8c>)
 80016ea:	4293      	cmp	r3, r2
 80016ec:	d009      	beq.n	8001702 <HAL_TIM_Base_Start_IT+0x4e>
 80016ee:	687b      	ldr	r3, [r7, #4]
 80016f0:	681b      	ldr	r3, [r3, #0]
 80016f2:	4a14      	ldr	r2, [pc, #80]	; (8001744 <HAL_TIM_Base_Start_IT+0x90>)
 80016f4:	4293      	cmp	r3, r2
 80016f6:	d004      	beq.n	8001702 <HAL_TIM_Base_Start_IT+0x4e>
 80016f8:	687b      	ldr	r3, [r7, #4]
 80016fa:	681b      	ldr	r3, [r3, #0]
 80016fc:	4a12      	ldr	r2, [pc, #72]	; (8001748 <HAL_TIM_Base_Start_IT+0x94>)
 80016fe:	4293      	cmp	r3, r2
 8001700:	d111      	bne.n	8001726 <HAL_TIM_Base_Start_IT+0x72>
 8001702:	687b      	ldr	r3, [r7, #4]
 8001704:	681b      	ldr	r3, [r3, #0]
 8001706:	689b      	ldr	r3, [r3, #8]
 8001708:	2207      	movs	r2, #7
 800170a:	4013      	ands	r3, r2
 800170c:	60fb      	str	r3, [r7, #12]
 800170e:	68fb      	ldr	r3, [r7, #12]
 8001710:	2b06      	cmp	r3, #6
 8001712:	d010      	beq.n	8001736 <HAL_TIM_Base_Start_IT+0x82>
 8001714:	687b      	ldr	r3, [r7, #4]
 8001716:	681b      	ldr	r3, [r3, #0]
 8001718:	681a      	ldr	r2, [r3, #0]
 800171a:	687b      	ldr	r3, [r7, #4]
 800171c:	681b      	ldr	r3, [r3, #0]
 800171e:	2101      	movs	r1, #1
 8001720:	430a      	orrs	r2, r1
 8001722:	601a      	str	r2, [r3, #0]
 8001724:	e007      	b.n	8001736 <HAL_TIM_Base_Start_IT+0x82>
 8001726:	687b      	ldr	r3, [r7, #4]
 8001728:	681b      	ldr	r3, [r3, #0]
 800172a:	681a      	ldr	r2, [r3, #0]
 800172c:	687b      	ldr	r3, [r7, #4]
 800172e:	681b      	ldr	r3, [r3, #0]
 8001730:	2101      	movs	r1, #1
 8001732:	430a      	orrs	r2, r1
 8001734:	601a      	str	r2, [r3, #0]
 8001736:	2300      	movs	r3, #0
 8001738:	0018      	movs	r0, r3
 800173a:	46bd      	mov	sp, r7
 800173c:	b004      	add	sp, #16
 800173e:	bd80      	pop	{r7, pc}
 8001740:	40012c00 	.word	0x40012c00
 8001744:	40000400 	.word	0x40000400
 8001748:	40014000 	.word	0x40014000

0800174c <HAL_TIM_OC_Init>:
 800174c:	b580      	push	{r7, lr}
 800174e:	b082      	sub	sp, #8
 8001750:	af00      	add	r7, sp, #0
 8001752:	6078      	str	r0, [r7, #4]
 8001754:	687b      	ldr	r3, [r7, #4]
 8001756:	2b00      	cmp	r3, #0
 8001758:	d101      	bne.n	800175e <HAL_TIM_OC_Init+0x12>
 800175a:	2301      	movs	r3, #1
 800175c:	e042      	b.n	80017e4 <HAL_TIM_OC_Init+0x98>
 800175e:	687b      	ldr	r3, [r7, #4]
 8001760:	223d      	movs	r2, #61	; 0x3d
 8001762:	5c9b      	ldrb	r3, [r3, r2]
 8001764:	b2db      	uxtb	r3, r3
 8001766:	2b00      	cmp	r3, #0
 8001768:	d107      	bne.n	800177a <HAL_TIM_OC_Init+0x2e>
 800176a:	687b      	ldr	r3, [r7, #4]
 800176c:	223c      	movs	r2, #60	; 0x3c
 800176e:	2100      	movs	r1, #0
 8001770:	5499      	strb	r1, [r3, r2]
 8001772:	687b      	ldr	r3, [r7, #4]
 8001774:	0018      	movs	r0, r3
 8001776:	f7fe ff9b 	bl	80006b0 <HAL_TIM_OC_MspInit>
 800177a:	687b      	ldr	r3, [r7, #4]
 800177c:	223d      	movs	r2, #61	; 0x3d
 800177e:	2102      	movs	r1, #2
 8001780:	5499      	strb	r1, [r3, r2]
 8001782:	687b      	ldr	r3, [r7, #4]
 8001784:	681a      	ldr	r2, [r3, #0]
 8001786:	687b      	ldr	r3, [r7, #4]
 8001788:	3304      	adds	r3, #4
 800178a:	0019      	movs	r1, r3
 800178c:	0010      	movs	r0, r2
 800178e:	f000 f9bb 	bl	8001b08 <TIM_Base_SetConfig>
 8001792:	687b      	ldr	r3, [r7, #4]
 8001794:	2246      	movs	r2, #70	; 0x46
 8001796:	2101      	movs	r1, #1
 8001798:	5499      	strb	r1, [r3, r2]
 800179a:	687b      	ldr	r3, [r7, #4]
 800179c:	223e      	movs	r2, #62	; 0x3e
 800179e:	2101      	movs	r1, #1
 80017a0:	5499      	strb	r1, [r3, r2]
 80017a2:	687b      	ldr	r3, [r7, #4]
 80017a4:	223f      	movs	r2, #63	; 0x3f
 80017a6:	2101      	movs	r1, #1
 80017a8:	5499      	strb	r1, [r3, r2]
 80017aa:	687b      	ldr	r3, [r7, #4]
 80017ac:	2240      	movs	r2, #64	; 0x40
 80017ae:	2101      	movs	r1, #1
 80017b0:	5499      	strb	r1, [r3, r2]
 80017b2:	687b      	ldr	r3, [r7, #4]
 80017b4:	2241      	movs	r2, #65	; 0x41
 80017b6:	2101      	movs	r1, #1
 80017b8:	5499      	strb	r1, [r3, r2]
 80017ba:	687b      	ldr	r3, [r7, #4]
 80017bc:	2242      	movs	r2, #66	; 0x42
 80017be:	2101      	movs	r1, #1
 80017c0:	5499      	strb	r1, [r3, r2]
 80017c2:	687b      	ldr	r3, [r7, #4]
 80017c4:	2243      	movs	r2, #67	; 0x43
 80017c6:	2101      	movs	r1, #1
 80017c8:	5499      	strb	r1, [r3, r2]
 80017ca:	687b      	ldr	r3, [r7, #4]
 80017cc:	2244      	movs	r2, #68	; 0x44
 80017ce:	2101      	movs	r1, #1
 80017d0:	5499      	strb	r1, [r3, r2]
 80017d2:	687b      	ldr	r3, [r7, #4]
 80017d4:	2245      	movs	r2, #69	; 0x45
 80017d6:	2101      	movs	r1, #1
 80017d8:	5499      	strb	r1, [r3, r2]
 80017da:	687b      	ldr	r3, [r7, #4]
 80017dc:	223d      	movs	r2, #61	; 0x3d
 80017de:	2101      	movs	r1, #1
 80017e0:	5499      	strb	r1, [r3, r2]
 80017e2:	2300      	movs	r3, #0
 80017e4:	0018      	movs	r0, r3
 80017e6:	46bd      	mov	sp, r7
 80017e8:	b002      	add	sp, #8
 80017ea:	bd80      	pop	{r7, pc}

080017ec <HAL_TIM_IRQHandler>:
 80017ec:	b580      	push	{r7, lr}
 80017ee:	b082      	sub	sp, #8
 80017f0:	af00      	add	r7, sp, #0
 80017f2:	6078      	str	r0, [r7, #4]
 80017f4:	687b      	ldr	r3, [r7, #4]
 80017f6:	681b      	ldr	r3, [r3, #0]
 80017f8:	691b      	ldr	r3, [r3, #16]
 80017fa:	2202      	movs	r2, #2
 80017fc:	4013      	ands	r3, r2
 80017fe:	2b02      	cmp	r3, #2
 8001800:	d124      	bne.n	800184c <HAL_TIM_IRQHandler+0x60>
 8001802:	687b      	ldr	r3, [r7, #4]
 8001804:	681b      	ldr	r3, [r3, #0]
 8001806:	68db      	ldr	r3, [r3, #12]
 8001808:	2202      	movs	r2, #2
 800180a:	4013      	ands	r3, r2
 800180c:	2b02      	cmp	r3, #2
 800180e:	d11d      	bne.n	800184c <HAL_TIM_IRQHandler+0x60>
 8001810:	687b      	ldr	r3, [r7, #4]
 8001812:	681b      	ldr	r3, [r3, #0]
 8001814:	2203      	movs	r2, #3
 8001816:	4252      	negs	r2, r2
 8001818:	611a      	str	r2, [r3, #16]
 800181a:	687b      	ldr	r3, [r7, #4]
 800181c:	2201      	movs	r2, #1
 800181e:	771a      	strb	r2, [r3, #28]
 8001820:	687b      	ldr	r3, [r7, #4]
 8001822:	681b      	ldr	r3, [r3, #0]
 8001824:	699b      	ldr	r3, [r3, #24]
 8001826:	2203      	movs	r2, #3
 8001828:	4013      	ands	r3, r2
 800182a:	d004      	beq.n	8001836 <HAL_TIM_IRQHandler+0x4a>
 800182c:	687b      	ldr	r3, [r7, #4]
 800182e:	0018      	movs	r0, r3
 8001830:	f000 f952 	bl	8001ad8 <HAL_TIM_IC_CaptureCallback>
 8001834:	e007      	b.n	8001846 <HAL_TIM_IRQHandler+0x5a>
 8001836:	687b      	ldr	r3, [r7, #4]
 8001838:	0018      	movs	r0, r3
 800183a:	f7fe fd29 	bl	8000290 <HAL_TIM_OC_DelayElapsedCallback>
 800183e:	687b      	ldr	r3, [r7, #4]
 8001840:	0018      	movs	r0, r3
 8001842:	f000 f951 	bl	8001ae8 <HAL_TIM_PWM_PulseFinishedCallback>
 8001846:	687b      	ldr	r3, [r7, #4]
 8001848:	2200      	movs	r2, #0
 800184a:	771a      	strb	r2, [r3, #28]
 800184c:	687b      	ldr	r3, [r7, #4]
 800184e:	681b      	ldr	r3, [r3, #0]
 8001850:	691b      	ldr	r3, [r3, #16]
 8001852:	2204      	movs	r2, #4
 8001854:	4013      	ands	r3, r2
 8001856:	2b04      	cmp	r3, #4
 8001858:	d125      	bne.n	80018a6 <HAL_TIM_IRQHandler+0xba>
 800185a:	687b      	ldr	r3, [r7, #4]
 800185c:	681b      	ldr	r3, [r3, #0]
 800185e:	68db      	ldr	r3, [r3, #12]
 8001860:	2204      	movs	r2, #4
 8001862:	4013      	ands	r3, r2
 8001864:	2b04      	cmp	r3, #4
 8001866:	d11e      	bne.n	80018a6 <HAL_TIM_IRQHandler+0xba>
 8001868:	687b      	ldr	r3, [r7, #4]
 800186a:	681b      	ldr	r3, [r3, #0]
 800186c:	2205      	movs	r2, #5
 800186e:	4252      	negs	r2, r2
 8001870:	611a      	str	r2, [r3, #16]
 8001872:	687b      	ldr	r3, [r7, #4]
 8001874:	2202      	movs	r2, #2
 8001876:	771a      	strb	r2, [r3, #28]
 8001878:	687b      	ldr	r3, [r7, #4]
 800187a:	681b      	ldr	r3, [r3, #0]
 800187c:	699a      	ldr	r2, [r3, #24]
 800187e:	23c0      	movs	r3, #192	; 0xc0
 8001880:	009b      	lsls	r3, r3, #2
 8001882:	4013      	ands	r3, r2
 8001884:	d004      	beq.n	8001890 <HAL_TIM_IRQHandler+0xa4>
 8001886:	687b      	ldr	r3, [r7, #4]
 8001888:	0018      	movs	r0, r3
 800188a:	f000 f925 	bl	8001ad8 <HAL_TIM_IC_CaptureCallback>
 800188e:	e007      	b.n	80018a0 <HAL_TIM_IRQHandler+0xb4>
 8001890:	687b      	ldr	r3, [r7, #4]
 8001892:	0018      	movs	r0, r3
 8001894:	f7fe fcfc 	bl	8000290 <HAL_TIM_OC_DelayElapsedCallback>
 8001898:	687b      	ldr	r3, [r7, #4]
 800189a:	0018      	movs	r0, r3
 800189c:	f000 f924 	bl	8001ae8 <HAL_TIM_PWM_PulseFinishedCallback>
 80018a0:	687b      	ldr	r3, [r7, #4]
 80018a2:	2200      	movs	r2, #0
 80018a4:	771a      	strb	r2, [r3, #28]
 80018a6:	687b      	ldr	r3, [r7, #4]
 80018a8:	681b      	ldr	r3, [r3, #0]
 80018aa:	691b      	ldr	r3, [r3, #16]
 80018ac:	2208      	movs	r2, #8
 80018ae:	4013      	ands	r3, r2
 80018b0:	2b08      	cmp	r3, #8
 80018b2:	d124      	bne.n	80018fe <HAL_TIM_IRQHandler+0x112>
 80018b4:	687b      	ldr	r3, [r7, #4]
 80018b6:	681b      	ldr	r3, [r3, #0]
 80018b8:	68db      	ldr	r3, [r3, #12]
 80018ba:	2208      	movs	r2, #8
 80018bc:	4013      	ands	r3, r2
 80018be:	2b08      	cmp	r3, #8
 80018c0:	d11d      	bne.n	80018fe <HAL_TIM_IRQHandler+0x112>
 80018c2:	687b      	ldr	r3, [r7, #4]
 80018c4:	681b      	ldr	r3, [r3, #0]
 80018c6:	2209      	movs	r2, #9
 80018c8:	4252      	negs	r2, r2
 80018ca:	611a      	str	r2, [r3, #16]
 80018cc:	687b      	ldr	r3, [r7, #4]
 80018ce:	2204      	movs	r2, #4
 80018d0:	771a      	strb	r2, [r3, #28]
 80018d2:	687b      	ldr	r3, [r7, #4]
 80018d4:	681b      	ldr	r3, [r3, #0]
 80018d6:	69db      	ldr	r3, [r3, #28]
 80018d8:	2203      	movs	r2, #3
 80018da:	4013      	ands	r3, r2
 80018dc:	d004      	beq.n	80018e8 <HAL_TIM_IRQHandler+0xfc>
 80018de:	687b      	ldr	r3, [r7, #4]
 80018e0:	0018      	movs	r0, r3
 80018e2:	f000 f8f9 	bl	8001ad8 <HAL_TIM_IC_CaptureCallback>
 80018e6:	e007      	b.n	80018f8 <HAL_TIM_IRQHandler+0x10c>
 80018e8:	687b      	ldr	r3, [r7, #4]
 80018ea:	0018      	movs	r0, r3
 80018ec:	f7fe fcd0 	bl	8000290 <HAL_TIM_OC_DelayElapsedCallback>
 80018f0:	687b      	ldr	r3, [r7, #4]
 80018f2:	0018      	movs	r0, r3
 80018f4:	f000 f8f8 	bl	8001ae8 <HAL_TIM_PWM_PulseFinishedCallback>
 80018f8:	687b      	ldr	r3, [r7, #4]
 80018fa:	2200      	movs	r2, #0
 80018fc:	771a      	strb	r2, [r3, #28]
 80018fe:	687b      	ldr	r3, [r7, #4]
 8001900:	681b      	ldr	r3, [r3, #0]
 8001902:	691b      	ldr	r3, [r3, #16]
 8001904:	2210      	movs	r2, #16
 8001906:	4013      	ands	r3, r2
 8001908:	2b10      	cmp	r3, #16
 800190a:	d125      	bne.n	8001958 <HAL_TIM_IRQHandler+0x16c>
 800190c:	687b      	ldr	r3, [r7, #4]
 800190e:	681b      	ldr	r3, [r3, #0]
 8001910:	68db      	ldr	r3, [r3, #12]
 8001912:	2210      	movs	r2, #16
 8001914:	4013      	ands	r3, r2
 8001916:	2b10      	cmp	r3, #16
 8001918:	d11e      	bne.n	8001958 <HAL_TIM_IRQHandler+0x16c>
 800191a:	687b      	ldr	r3, [r7, #4]
 800191c:	681b      	ldr	r3, [r3, #0]
 800191e:	2211      	movs	r2, #17
 8001920:	4252      	negs	r2, r2
 8001922:	611a      	str	r2, [r3, #16]
 8001924:	687b      	ldr	r3, [r7, #4]
 8001926:	2208      	movs	r2, #8
 8001928:	771a      	strb	r2, [r3, #28]
 800192a:	687b      	ldr	r3, [r7, #4]
 800192c:	681b      	ldr	r3, [r3, #0]
 800192e:	69da      	ldr	r2, [r3, #28]
 8001930:	23c0      	movs	r3, #192	; 0xc0
 8001932:	009b      	lsls	r3, r3, #2
 8001934:	4013      	ands	r3, r2
 8001936:	d004      	beq.n	8001942 <HAL_TIM_IRQHandler+0x156>
 8001938:	687b      	ldr	r3, [r7, #4]
 800193a:	0018      	movs	r0, r3
 800193c:	f000 f8cc 	bl	8001ad8 <HAL_TIM_IC_CaptureCallback>
 8001940:	e007      	b.n	8001952 <HAL_TIM_IRQHandler+0x166>
 8001942:	687b      	ldr	r3, [r7, #4]
 8001944:	0018      	movs	r0, r3
 8001946:	f7fe fca3 	bl	8000290 <HAL_TIM_OC_DelayElapsedCallback>
 800194a:	687b      	ldr	r3, [r7, #4]
 800194c:	0018      	movs	r0, r3
 800194e:	f000 f8cb 	bl	8001ae8 <HAL_TIM_PWM_PulseFinishedCallback>
 8001952:	687b      	ldr	r3, [r7, #4]
 8001954:	2200      	movs	r2, #0
 8001956:	771a      	strb	r2, [r3, #28]
 8001958:	687b      	ldr	r3, [r7, #4]
 800195a:	681b      	ldr	r3, [r3, #0]
 800195c:	691b      	ldr	r3, [r3, #16]
 800195e:	2201      	movs	r2, #1
 8001960:	4013      	ands	r3, r2
 8001962:	2b01      	cmp	r3, #1
 8001964:	d10f      	bne.n	8001986 <HAL_TIM_IRQHandler+0x19a>
 8001966:	687b      	ldr	r3, [r7, #4]
 8001968:	681b      	ldr	r3, [r3, #0]
 800196a:	68db      	ldr	r3, [r3, #12]
 800196c:	2201      	movs	r2, #1
 800196e:	4013      	ands	r3, r2
 8001970:	2b01      	cmp	r3, #1
 8001972:	d108      	bne.n	8001986 <HAL_TIM_IRQHandler+0x19a>
 8001974:	687b      	ldr	r3, [r7, #4]
 8001976:	681b      	ldr	r3, [r3, #0]
 8001978:	2202      	movs	r2, #2
 800197a:	4252      	negs	r2, r2
 800197c:	611a      	str	r2, [r3, #16]
 800197e:	687b      	ldr	r3, [r7, #4]
 8001980:	0018      	movs	r0, r3
 8001982:	f000 f8a1 	bl	8001ac8 <HAL_TIM_PeriodElapsedCallback>
 8001986:	687b      	ldr	r3, [r7, #4]
 8001988:	681b      	ldr	r3, [r3, #0]
 800198a:	691b      	ldr	r3, [r3, #16]
 800198c:	2280      	movs	r2, #128	; 0x80
 800198e:	4013      	ands	r3, r2
 8001990:	2b80      	cmp	r3, #128	; 0x80
 8001992:	d10f      	bne.n	80019b4 <HAL_TIM_IRQHandler+0x1c8>
 8001994:	687b      	ldr	r3, [r7, #4]
 8001996:	681b      	ldr	r3, [r3, #0]
 8001998:	68db      	ldr	r3, [r3, #12]
 800199a:	2280      	movs	r2, #128	; 0x80
 800199c:	4013      	ands	r3, r2
 800199e:	2b80      	cmp	r3, #128	; 0x80
 80019a0:	d108      	bne.n	80019b4 <HAL_TIM_IRQHandler+0x1c8>
 80019a2:	687b      	ldr	r3, [r7, #4]
 80019a4:	681b      	ldr	r3, [r3, #0]
 80019a6:	2281      	movs	r2, #129	; 0x81
 80019a8:	4252      	negs	r2, r2
 80019aa:	611a      	str	r2, [r3, #16]
 80019ac:	687b      	ldr	r3, [r7, #4]
 80019ae:	0018      	movs	r0, r3
 80019b0:	f000 fcb0 	bl	8002314 <HAL_TIMEx_BreakCallback>
 80019b4:	687b      	ldr	r3, [r7, #4]
 80019b6:	681b      	ldr	r3, [r3, #0]
 80019b8:	691b      	ldr	r3, [r3, #16]
 80019ba:	2240      	movs	r2, #64	; 0x40
 80019bc:	4013      	ands	r3, r2
 80019be:	2b40      	cmp	r3, #64	; 0x40
 80019c0:	d10f      	bne.n	80019e2 <HAL_TIM_IRQHandler+0x1f6>
 80019c2:	687b      	ldr	r3, [r7, #4]
 80019c4:	681b      	ldr	r3, [r3, #0]
 80019c6:	68db      	ldr	r3, [r3, #12]
 80019c8:	2240      	movs	r2, #64	; 0x40
 80019ca:	4013      	ands	r3, r2
 80019cc:	2b40      	cmp	r3, #64	; 0x40
 80019ce:	d108      	bne.n	80019e2 <HAL_TIM_IRQHandler+0x1f6>
 80019d0:	687b      	ldr	r3, [r7, #4]
 80019d2:	681b      	ldr	r3, [r3, #0]
 80019d4:	2241      	movs	r2, #65	; 0x41
 80019d6:	4252      	negs	r2, r2
 80019d8:	611a      	str	r2, [r3, #16]
 80019da:	687b      	ldr	r3, [r7, #4]
 80019dc:	0018      	movs	r0, r3
 80019de:	f000 f88b 	bl	8001af8 <HAL_TIM_TriggerCallback>
 80019e2:	687b      	ldr	r3, [r7, #4]
 80019e4:	681b      	ldr	r3, [r3, #0]
 80019e6:	691b      	ldr	r3, [r3, #16]
 80019e8:	2220      	movs	r2, #32
 80019ea:	4013      	ands	r3, r2
 80019ec:	2b20      	cmp	r3, #32
 80019ee:	d10f      	bne.n	8001a10 <HAL_TIM_IRQHandler+0x224>
 80019f0:	687b      	ldr	r3, [r7, #4]
 80019f2:	681b      	ldr	r3, [r3, #0]
 80019f4:	68db      	ldr	r3, [r3, #12]
 80019f6:	2220      	movs	r2, #32
 80019f8:	4013      	ands	r3, r2
 80019fa:	2b20      	cmp	r3, #32
 80019fc:	d108      	bne.n	8001a10 <HAL_TIM_IRQHandler+0x224>
 80019fe:	687b      	ldr	r3, [r7, #4]
 8001a00:	681b      	ldr	r3, [r3, #0]
 8001a02:	2221      	movs	r2, #33	; 0x21
 8001a04:	4252      	negs	r2, r2
 8001a06:	611a      	str	r2, [r3, #16]
 8001a08:	687b      	ldr	r3, [r7, #4]
 8001a0a:	0018      	movs	r0, r3
 8001a0c:	f000 fc7a 	bl	8002304 <HAL_TIMEx_CommutCallback>
 8001a10:	46c0      	nop			; (mov r8, r8)
 8001a12:	46bd      	mov	sp, r7
 8001a14:	b002      	add	sp, #8
 8001a16:	bd80      	pop	{r7, pc}

08001a18 <HAL_TIM_OC_ConfigChannel>:
 8001a18:	b580      	push	{r7, lr}
 8001a1a:	b086      	sub	sp, #24
 8001a1c:	af00      	add	r7, sp, #0
 8001a1e:	60f8      	str	r0, [r7, #12]
 8001a20:	60b9      	str	r1, [r7, #8]
 8001a22:	607a      	str	r2, [r7, #4]
 8001a24:	2317      	movs	r3, #23
 8001a26:	18fb      	adds	r3, r7, r3
 8001a28:	2200      	movs	r2, #0
 8001a2a:	701a      	strb	r2, [r3, #0]
 8001a2c:	68fb      	ldr	r3, [r7, #12]
 8001a2e:	223c      	movs	r2, #60	; 0x3c
 8001a30:	5c9b      	ldrb	r3, [r3, r2]
 8001a32:	2b01      	cmp	r3, #1
 8001a34:	d101      	bne.n	8001a3a <HAL_TIM_OC_ConfigChannel+0x22>
 8001a36:	2302      	movs	r3, #2
 8001a38:	e042      	b.n	8001ac0 <HAL_TIM_OC_ConfigChannel+0xa8>
 8001a3a:	68fb      	ldr	r3, [r7, #12]
 8001a3c:	223c      	movs	r2, #60	; 0x3c
 8001a3e:	2101      	movs	r1, #1
 8001a40:	5499      	strb	r1, [r3, r2]
 8001a42:	687b      	ldr	r3, [r7, #4]
 8001a44:	2b0c      	cmp	r3, #12
 8001a46:	d027      	beq.n	8001a98 <HAL_TIM_OC_ConfigChannel+0x80>
 8001a48:	687b      	ldr	r3, [r7, #4]
 8001a4a:	2b0c      	cmp	r3, #12
 8001a4c:	d82c      	bhi.n	8001aa8 <HAL_TIM_OC_ConfigChannel+0x90>
 8001a4e:	687b      	ldr	r3, [r7, #4]
 8001a50:	2b08      	cmp	r3, #8
 8001a52:	d019      	beq.n	8001a88 <HAL_TIM_OC_ConfigChannel+0x70>
 8001a54:	687b      	ldr	r3, [r7, #4]
 8001a56:	2b08      	cmp	r3, #8
 8001a58:	d826      	bhi.n	8001aa8 <HAL_TIM_OC_ConfigChannel+0x90>
 8001a5a:	687b      	ldr	r3, [r7, #4]
 8001a5c:	2b00      	cmp	r3, #0
 8001a5e:	d003      	beq.n	8001a68 <HAL_TIM_OC_ConfigChannel+0x50>
 8001a60:	687b      	ldr	r3, [r7, #4]
 8001a62:	2b04      	cmp	r3, #4
 8001a64:	d008      	beq.n	8001a78 <HAL_TIM_OC_ConfigChannel+0x60>
 8001a66:	e01f      	b.n	8001aa8 <HAL_TIM_OC_ConfigChannel+0x90>
 8001a68:	68fb      	ldr	r3, [r7, #12]
 8001a6a:	681b      	ldr	r3, [r3, #0]
 8001a6c:	68ba      	ldr	r2, [r7, #8]
 8001a6e:	0011      	movs	r1, r2
 8001a70:	0018      	movs	r0, r3
 8001a72:	f000 f8bf 	bl	8001bf4 <TIM_OC1_SetConfig>
 8001a76:	e01c      	b.n	8001ab2 <HAL_TIM_OC_ConfigChannel+0x9a>
 8001a78:	68fb      	ldr	r3, [r7, #12]
 8001a7a:	681b      	ldr	r3, [r3, #0]
 8001a7c:	68ba      	ldr	r2, [r7, #8]
 8001a7e:	0011      	movs	r1, r2
 8001a80:	0018      	movs	r0, r3
 8001a82:	f000 f93f 	bl	8001d04 <TIM_OC2_SetConfig>
 8001a86:	e014      	b.n	8001ab2 <HAL_TIM_OC_ConfigChannel+0x9a>
 8001a88:	68fb      	ldr	r3, [r7, #12]
 8001a8a:	681b      	ldr	r3, [r3, #0]
 8001a8c:	68ba      	ldr	r2, [r7, #8]
 8001a8e:	0011      	movs	r1, r2
 8001a90:	0018      	movs	r0, r3
 8001a92:	f000 f9bb 	bl	8001e0c <TIM_OC3_SetConfig>
 8001a96:	e00c      	b.n	8001ab2 <HAL_TIM_OC_ConfigChannel+0x9a>
 8001a98:	68fb      	ldr	r3, [r7, #12]
 8001a9a:	681b      	ldr	r3, [r3, #0]
 8001a9c:	68ba      	ldr	r2, [r7, #8]
 8001a9e:	0011      	movs	r1, r2
 8001aa0:	0018      	movs	r0, r3
 8001aa2:	f000 fa39 	bl	8001f18 <TIM_OC4_SetConfig>
 8001aa6:	e004      	b.n	8001ab2 <HAL_TIM_OC_ConfigChannel+0x9a>
 8001aa8:	2317      	movs	r3, #23
 8001aaa:	18fb      	adds	r3, r7, r3
 8001aac:	2201      	movs	r2, #1
 8001aae:	701a      	strb	r2, [r3, #0]
 8001ab0:	46c0      	nop			; (mov r8, r8)
 8001ab2:	68fb      	ldr	r3, [r7, #12]
 8001ab4:	223c      	movs	r2, #60	; 0x3c
 8001ab6:	2100      	movs	r1, #0
 8001ab8:	5499      	strb	r1, [r3, r2]
 8001aba:	2317      	movs	r3, #23
 8001abc:	18fb      	adds	r3, r7, r3
 8001abe:	781b      	ldrb	r3, [r3, #0]
 8001ac0:	0018      	movs	r0, r3
 8001ac2:	46bd      	mov	sp, r7
 8001ac4:	b006      	add	sp, #24
 8001ac6:	bd80      	pop	{r7, pc}

08001ac8 <HAL_TIM_PeriodElapsedCallback>:
 8001ac8:	b580      	push	{r7, lr}
 8001aca:	b082      	sub	sp, #8
 8001acc:	af00      	add	r7, sp, #0
 8001ace:	6078      	str	r0, [r7, #4]
 8001ad0:	46c0      	nop			; (mov r8, r8)
 8001ad2:	46bd      	mov	sp, r7
 8001ad4:	b002      	add	sp, #8
 8001ad6:	bd80      	pop	{r7, pc}

08001ad8 <HAL_TIM_IC_CaptureCallback>:
 8001ad8:	b580      	push	{r7, lr}
 8001ada:	b082      	sub	sp, #8
 8001adc:	af00      	add	r7, sp, #0
 8001ade:	6078      	str	r0, [r7, #4]
 8001ae0:	46c0      	nop			; (mov r8, r8)
 8001ae2:	46bd      	mov	sp, r7
 8001ae4:	b002      	add	sp, #8
 8001ae6:	bd80      	pop	{r7, pc}

08001ae8 <HAL_TIM_PWM_PulseFinishedCallback>:
 8001ae8:	b580      	push	{r7, lr}
 8001aea:	b082      	sub	sp, #8
 8001aec:	af00      	add	r7, sp, #0
 8001aee:	6078      	str	r0, [r7, #4]
 8001af0:	46c0      	nop			; (mov r8, r8)
 8001af2:	46bd      	mov	sp, r7
 8001af4:	b002      	add	sp, #8
 8001af6:	bd80      	pop	{r7, pc}

08001af8 <HAL_TIM_TriggerCallback>:
 8001af8:	b580      	push	{r7, lr}
 8001afa:	b082      	sub	sp, #8
 8001afc:	af00      	add	r7, sp, #0
 8001afe:	6078      	str	r0, [r7, #4]
 8001b00:	46c0      	nop			; (mov r8, r8)
 8001b02:	46bd      	mov	sp, r7
 8001b04:	b002      	add	sp, #8
 8001b06:	bd80      	pop	{r7, pc}

08001b08 <TIM_Base_SetConfig>:
 8001b08:	b580      	push	{r7, lr}
 8001b0a:	b084      	sub	sp, #16
 8001b0c:	af00      	add	r7, sp, #0
 8001b0e:	6078      	str	r0, [r7, #4]
 8001b10:	6039      	str	r1, [r7, #0]
 8001b12:	687b      	ldr	r3, [r7, #4]
 8001b14:	681b      	ldr	r3, [r3, #0]
 8001b16:	60fb      	str	r3, [r7, #12]
 8001b18:	687b      	ldr	r3, [r7, #4]
 8001b1a:	4a2f      	ldr	r2, [pc, #188]	; (8001bd8 <TIM_Base_SetConfig+0xd0>)
 8001b1c:	4293      	cmp	r3, r2
 8001b1e:	d003      	beq.n	8001b28 <TIM_Base_SetConfig+0x20>
 8001b20:	687b      	ldr	r3, [r7, #4]
 8001b22:	4a2e      	ldr	r2, [pc, #184]	; (8001bdc <TIM_Base_SetConfig+0xd4>)
 8001b24:	4293      	cmp	r3, r2
 8001b26:	d108      	bne.n	8001b3a <TIM_Base_SetConfig+0x32>
 8001b28:	68fb      	ldr	r3, [r7, #12]
 8001b2a:	2270      	movs	r2, #112	; 0x70
 8001b2c:	4393      	bics	r3, r2
 8001b2e:	60fb      	str	r3, [r7, #12]
 8001b30:	683b      	ldr	r3, [r7, #0]
 8001b32:	685b      	ldr	r3, [r3, #4]
 8001b34:	68fa      	ldr	r2, [r7, #12]
 8001b36:	4313      	orrs	r3, r2
 8001b38:	60fb      	str	r3, [r7, #12]
 8001b3a:	687b      	ldr	r3, [r7, #4]
 8001b3c:	4a26      	ldr	r2, [pc, #152]	; (8001bd8 <TIM_Base_SetConfig+0xd0>)
 8001b3e:	4293      	cmp	r3, r2
 8001b40:	d013      	beq.n	8001b6a <TIM_Base_SetConfig+0x62>
 8001b42:	687b      	ldr	r3, [r7, #4]
 8001b44:	4a25      	ldr	r2, [pc, #148]	; (8001bdc <TIM_Base_SetConfig+0xd4>)
 8001b46:	4293      	cmp	r3, r2
 8001b48:	d00f      	beq.n	8001b6a <TIM_Base_SetConfig+0x62>
 8001b4a:	687b      	ldr	r3, [r7, #4]
 8001b4c:	4a24      	ldr	r2, [pc, #144]	; (8001be0 <TIM_Base_SetConfig+0xd8>)
 8001b4e:	4293      	cmp	r3, r2
 8001b50:	d00b      	beq.n	8001b6a <TIM_Base_SetConfig+0x62>
 8001b52:	687b      	ldr	r3, [r7, #4]
 8001b54:	4a23      	ldr	r2, [pc, #140]	; (8001be4 <TIM_Base_SetConfig+0xdc>)
 8001b56:	4293      	cmp	r3, r2
 8001b58:	d007      	beq.n	8001b6a <TIM_Base_SetConfig+0x62>
 8001b5a:	687b      	ldr	r3, [r7, #4]
 8001b5c:	4a22      	ldr	r2, [pc, #136]	; (8001be8 <TIM_Base_SetConfig+0xe0>)
 8001b5e:	4293      	cmp	r3, r2
 8001b60:	d003      	beq.n	8001b6a <TIM_Base_SetConfig+0x62>
 8001b62:	687b      	ldr	r3, [r7, #4]
 8001b64:	4a21      	ldr	r2, [pc, #132]	; (8001bec <TIM_Base_SetConfig+0xe4>)
 8001b66:	4293      	cmp	r3, r2
 8001b68:	d108      	bne.n	8001b7c <TIM_Base_SetConfig+0x74>
 8001b6a:	68fb      	ldr	r3, [r7, #12]
 8001b6c:	4a20      	ldr	r2, [pc, #128]	; (8001bf0 <TIM_Base_SetConfig+0xe8>)
 8001b6e:	4013      	ands	r3, r2
 8001b70:	60fb      	str	r3, [r7, #12]
 8001b72:	683b      	ldr	r3, [r7, #0]
 8001b74:	68db      	ldr	r3, [r3, #12]
 8001b76:	68fa      	ldr	r2, [r7, #12]
 8001b78:	4313      	orrs	r3, r2
 8001b7a:	60fb      	str	r3, [r7, #12]
 8001b7c:	68fb      	ldr	r3, [r7, #12]
 8001b7e:	2280      	movs	r2, #128	; 0x80
 8001b80:	4393      	bics	r3, r2
 8001b82:	001a      	movs	r2, r3
 8001b84:	683b      	ldr	r3, [r7, #0]
 8001b86:	695b      	ldr	r3, [r3, #20]
 8001b88:	4313      	orrs	r3, r2
 8001b8a:	60fb      	str	r3, [r7, #12]
 8001b8c:	687b      	ldr	r3, [r7, #4]
 8001b8e:	68fa      	ldr	r2, [r7, #12]
 8001b90:	601a      	str	r2, [r3, #0]
 8001b92:	683b      	ldr	r3, [r7, #0]
 8001b94:	689a      	ldr	r2, [r3, #8]
 8001b96:	687b      	ldr	r3, [r7, #4]
 8001b98:	62da      	str	r2, [r3, #44]	; 0x2c
 8001b9a:	683b      	ldr	r3, [r7, #0]
 8001b9c:	681a      	ldr	r2, [r3, #0]
 8001b9e:	687b      	ldr	r3, [r7, #4]
 8001ba0:	629a      	str	r2, [r3, #40]	; 0x28
 8001ba2:	687b      	ldr	r3, [r7, #4]
 8001ba4:	4a0c      	ldr	r2, [pc, #48]	; (8001bd8 <TIM_Base_SetConfig+0xd0>)
 8001ba6:	4293      	cmp	r3, r2
 8001ba8:	d00b      	beq.n	8001bc2 <TIM_Base_SetConfig+0xba>
 8001baa:	687b      	ldr	r3, [r7, #4]
 8001bac:	4a0d      	ldr	r2, [pc, #52]	; (8001be4 <TIM_Base_SetConfig+0xdc>)
 8001bae:	4293      	cmp	r3, r2
 8001bb0:	d007      	beq.n	8001bc2 <TIM_Base_SetConfig+0xba>
 8001bb2:	687b      	ldr	r3, [r7, #4]
 8001bb4:	4a0c      	ldr	r2, [pc, #48]	; (8001be8 <TIM_Base_SetConfig+0xe0>)
 8001bb6:	4293      	cmp	r3, r2
 8001bb8:	d003      	beq.n	8001bc2 <TIM_Base_SetConfig+0xba>
 8001bba:	687b      	ldr	r3, [r7, #4]
 8001bbc:	4a0b      	ldr	r2, [pc, #44]	; (8001bec <TIM_Base_SetConfig+0xe4>)
 8001bbe:	4293      	cmp	r3, r2
 8001bc0:	d103      	bne.n	8001bca <TIM_Base_SetConfig+0xc2>
 8001bc2:	683b      	ldr	r3, [r7, #0]
 8001bc4:	691a      	ldr	r2, [r3, #16]
 8001bc6:	687b      	ldr	r3, [r7, #4]
 8001bc8:	631a      	str	r2, [r3, #48]	; 0x30
 8001bca:	687b      	ldr	r3, [r7, #4]
 8001bcc:	2201      	movs	r2, #1
 8001bce:	615a      	str	r2, [r3, #20]
 8001bd0:	46c0      	nop			; (mov r8, r8)
 8001bd2:	46bd      	mov	sp, r7
 8001bd4:	b004      	add	sp, #16
 8001bd6:	bd80      	pop	{r7, pc}
 8001bd8:	40012c00 	.word	0x40012c00
 8001bdc:	40000400 	.word	0x40000400
 8001be0:	40002000 	.word	0x40002000
 8001be4:	40014000 	.word	0x40014000
 8001be8:	40014400 	.word	0x40014400
 8001bec:	40014800 	.word	0x40014800
 8001bf0:	fffffcff 	.word	0xfffffcff

08001bf4 <TIM_OC1_SetConfig>:
 8001bf4:	b580      	push	{r7, lr}
 8001bf6:	b086      	sub	sp, #24
 8001bf8:	af00      	add	r7, sp, #0
 8001bfa:	6078      	str	r0, [r7, #4]
 8001bfc:	6039      	str	r1, [r7, #0]
 8001bfe:	687b      	ldr	r3, [r7, #4]
 8001c00:	6a1b      	ldr	r3, [r3, #32]
 8001c02:	2201      	movs	r2, #1
 8001c04:	4393      	bics	r3, r2
 8001c06:	001a      	movs	r2, r3
 8001c08:	687b      	ldr	r3, [r7, #4]
 8001c0a:	621a      	str	r2, [r3, #32]
 8001c0c:	687b      	ldr	r3, [r7, #4]
 8001c0e:	6a1b      	ldr	r3, [r3, #32]
 8001c10:	617b      	str	r3, [r7, #20]
 8001c12:	687b      	ldr	r3, [r7, #4]
 8001c14:	685b      	ldr	r3, [r3, #4]
 8001c16:	613b      	str	r3, [r7, #16]
 8001c18:	687b      	ldr	r3, [r7, #4]
 8001c1a:	699b      	ldr	r3, [r3, #24]
 8001c1c:	60fb      	str	r3, [r7, #12]
 8001c1e:	68fb      	ldr	r3, [r7, #12]
 8001c20:	2270      	movs	r2, #112	; 0x70
 8001c22:	4393      	bics	r3, r2
 8001c24:	60fb      	str	r3, [r7, #12]
 8001c26:	68fb      	ldr	r3, [r7, #12]
 8001c28:	2203      	movs	r2, #3
 8001c2a:	4393      	bics	r3, r2
 8001c2c:	60fb      	str	r3, [r7, #12]
 8001c2e:	683b      	ldr	r3, [r7, #0]
 8001c30:	681b      	ldr	r3, [r3, #0]
 8001c32:	68fa      	ldr	r2, [r7, #12]
 8001c34:	4313      	orrs	r3, r2
 8001c36:	60fb      	str	r3, [r7, #12]
 8001c38:	697b      	ldr	r3, [r7, #20]
 8001c3a:	2202      	movs	r2, #2
 8001c3c:	4393      	bics	r3, r2
 8001c3e:	617b      	str	r3, [r7, #20]
 8001c40:	683b      	ldr	r3, [r7, #0]
 8001c42:	689b      	ldr	r3, [r3, #8]
 8001c44:	697a      	ldr	r2, [r7, #20]
 8001c46:	4313      	orrs	r3, r2
 8001c48:	617b      	str	r3, [r7, #20]
 8001c4a:	687b      	ldr	r3, [r7, #4]
 8001c4c:	4a27      	ldr	r2, [pc, #156]	; (8001cec <TIM_OC1_SetConfig+0xf8>)
 8001c4e:	4293      	cmp	r3, r2
 8001c50:	d00b      	beq.n	8001c6a <TIM_OC1_SetConfig+0x76>
 8001c52:	687b      	ldr	r3, [r7, #4]
 8001c54:	4a26      	ldr	r2, [pc, #152]	; (8001cf0 <TIM_OC1_SetConfig+0xfc>)
 8001c56:	4293      	cmp	r3, r2
 8001c58:	d007      	beq.n	8001c6a <TIM_OC1_SetConfig+0x76>
 8001c5a:	687b      	ldr	r3, [r7, #4]
 8001c5c:	4a25      	ldr	r2, [pc, #148]	; (8001cf4 <TIM_OC1_SetConfig+0x100>)
 8001c5e:	4293      	cmp	r3, r2
 8001c60:	d003      	beq.n	8001c6a <TIM_OC1_SetConfig+0x76>
 8001c62:	687b      	ldr	r3, [r7, #4]
 8001c64:	4a24      	ldr	r2, [pc, #144]	; (8001cf8 <TIM_OC1_SetConfig+0x104>)
 8001c66:	4293      	cmp	r3, r2
 8001c68:	d10c      	bne.n	8001c84 <TIM_OC1_SetConfig+0x90>
 8001c6a:	697b      	ldr	r3, [r7, #20]
 8001c6c:	2208      	movs	r2, #8
 8001c6e:	4393      	bics	r3, r2
 8001c70:	617b      	str	r3, [r7, #20]
 8001c72:	683b      	ldr	r3, [r7, #0]
 8001c74:	68db      	ldr	r3, [r3, #12]
 8001c76:	697a      	ldr	r2, [r7, #20]
 8001c78:	4313      	orrs	r3, r2
 8001c7a:	617b      	str	r3, [r7, #20]
 8001c7c:	697b      	ldr	r3, [r7, #20]
 8001c7e:	2204      	movs	r2, #4
 8001c80:	4393      	bics	r3, r2
 8001c82:	617b      	str	r3, [r7, #20]
 8001c84:	687b      	ldr	r3, [r7, #4]
 8001c86:	4a19      	ldr	r2, [pc, #100]	; (8001cec <TIM_OC1_SetConfig+0xf8>)
 8001c88:	4293      	cmp	r3, r2
 8001c8a:	d00b      	beq.n	8001ca4 <TIM_OC1_SetConfig+0xb0>
 8001c8c:	687b      	ldr	r3, [r7, #4]
 8001c8e:	4a18      	ldr	r2, [pc, #96]	; (8001cf0 <TIM_OC1_SetConfig+0xfc>)
 8001c90:	4293      	cmp	r3, r2
 8001c92:	d007      	beq.n	8001ca4 <TIM_OC1_SetConfig+0xb0>
 8001c94:	687b      	ldr	r3, [r7, #4]
 8001c96:	4a17      	ldr	r2, [pc, #92]	; (8001cf4 <TIM_OC1_SetConfig+0x100>)
 8001c98:	4293      	cmp	r3, r2
 8001c9a:	d003      	beq.n	8001ca4 <TIM_OC1_SetConfig+0xb0>
 8001c9c:	687b      	ldr	r3, [r7, #4]
 8001c9e:	4a16      	ldr	r2, [pc, #88]	; (8001cf8 <TIM_OC1_SetConfig+0x104>)
 8001ca0:	4293      	cmp	r3, r2
 8001ca2:	d111      	bne.n	8001cc8 <TIM_OC1_SetConfig+0xd4>
 8001ca4:	693b      	ldr	r3, [r7, #16]
 8001ca6:	4a15      	ldr	r2, [pc, #84]	; (8001cfc <TIM_OC1_SetConfig+0x108>)
 8001ca8:	4013      	ands	r3, r2
 8001caa:	613b      	str	r3, [r7, #16]
 8001cac:	693b      	ldr	r3, [r7, #16]
 8001cae:	4a14      	ldr	r2, [pc, #80]	; (8001d00 <TIM_OC1_SetConfig+0x10c>)
 8001cb0:	4013      	ands	r3, r2
 8001cb2:	613b      	str	r3, [r7, #16]
 8001cb4:	683b      	ldr	r3, [r7, #0]
 8001cb6:	695b      	ldr	r3, [r3, #20]
 8001cb8:	693a      	ldr	r2, [r7, #16]
 8001cba:	4313      	orrs	r3, r2
 8001cbc:	613b      	str	r3, [r7, #16]
 8001cbe:	683b      	ldr	r3, [r7, #0]
 8001cc0:	699b      	ldr	r3, [r3, #24]
 8001cc2:	693a      	ldr	r2, [r7, #16]
 8001cc4:	4313      	orrs	r3, r2
 8001cc6:	613b      	str	r3, [r7, #16]
 8001cc8:	687b      	ldr	r3, [r7, #4]
 8001cca:	693a      	ldr	r2, [r7, #16]
 8001ccc:	605a      	str	r2, [r3, #4]
 8001cce:	687b      	ldr	r3, [r7, #4]
 8001cd0:	68fa      	ldr	r2, [r7, #12]
 8001cd2:	619a      	str	r2, [r3, #24]
 8001cd4:	683b      	ldr	r3, [r7, #0]
 8001cd6:	685a      	ldr	r2, [r3, #4]
 8001cd8:	687b      	ldr	r3, [r7, #4]
 8001cda:	635a      	str	r2, [r3, #52]	; 0x34
 8001cdc:	687b      	ldr	r3, [r7, #4]
 8001cde:	697a      	ldr	r2, [r7, #20]
 8001ce0:	621a      	str	r2, [r3, #32]
 8001ce2:	46c0      	nop			; (mov r8, r8)
 8001ce4:	46bd      	mov	sp, r7
 8001ce6:	b006      	add	sp, #24
 8001ce8:	bd80      	pop	{r7, pc}
 8001cea:	46c0      	nop			; (mov r8, r8)
 8001cec:	40012c00 	.word	0x40012c00
 8001cf0:	40014000 	.word	0x40014000
 8001cf4:	40014400 	.word	0x40014400
 8001cf8:	40014800 	.word	0x40014800
 8001cfc:	fffffeff 	.word	0xfffffeff
 8001d00:	fffffdff 	.word	0xfffffdff

08001d04 <TIM_OC2_SetConfig>:
 8001d04:	b580      	push	{r7, lr}
 8001d06:	b086      	sub	sp, #24
 8001d08:	af00      	add	r7, sp, #0
 8001d0a:	6078      	str	r0, [r7, #4]
 8001d0c:	6039      	str	r1, [r7, #0]
 8001d0e:	687b      	ldr	r3, [r7, #4]
 8001d10:	6a1b      	ldr	r3, [r3, #32]
 8001d12:	2210      	movs	r2, #16
 8001d14:	4393      	bics	r3, r2
 8001d16:	001a      	movs	r2, r3
 8001d18:	687b      	ldr	r3, [r7, #4]
 8001d1a:	621a      	str	r2, [r3, #32]
 8001d1c:	687b      	ldr	r3, [r7, #4]
 8001d1e:	6a1b      	ldr	r3, [r3, #32]
 8001d20:	617b      	str	r3, [r7, #20]
 8001d22:	687b      	ldr	r3, [r7, #4]
 8001d24:	685b      	ldr	r3, [r3, #4]
 8001d26:	613b      	str	r3, [r7, #16]
 8001d28:	687b      	ldr	r3, [r7, #4]
 8001d2a:	699b      	ldr	r3, [r3, #24]
 8001d2c:	60fb      	str	r3, [r7, #12]
 8001d2e:	68fb      	ldr	r3, [r7, #12]
 8001d30:	4a2e      	ldr	r2, [pc, #184]	; (8001dec <TIM_OC2_SetConfig+0xe8>)
 8001d32:	4013      	ands	r3, r2
 8001d34:	60fb      	str	r3, [r7, #12]
 8001d36:	68fb      	ldr	r3, [r7, #12]
 8001d38:	4a2d      	ldr	r2, [pc, #180]	; (8001df0 <TIM_OC2_SetConfig+0xec>)
 8001d3a:	4013      	ands	r3, r2
 8001d3c:	60fb      	str	r3, [r7, #12]
 8001d3e:	683b      	ldr	r3, [r7, #0]
 8001d40:	681b      	ldr	r3, [r3, #0]
 8001d42:	021b      	lsls	r3, r3, #8
 8001d44:	68fa      	ldr	r2, [r7, #12]
 8001d46:	4313      	orrs	r3, r2
 8001d48:	60fb      	str	r3, [r7, #12]
 8001d4a:	697b      	ldr	r3, [r7, #20]
 8001d4c:	2220      	movs	r2, #32
 8001d4e:	4393      	bics	r3, r2
 8001d50:	617b      	str	r3, [r7, #20]
 8001d52:	683b      	ldr	r3, [r7, #0]
 8001d54:	689b      	ldr	r3, [r3, #8]
 8001d56:	011b      	lsls	r3, r3, #4
 8001d58:	697a      	ldr	r2, [r7, #20]
 8001d5a:	4313      	orrs	r3, r2
 8001d5c:	617b      	str	r3, [r7, #20]
 8001d5e:	687b      	ldr	r3, [r7, #4]
 8001d60:	4a24      	ldr	r2, [pc, #144]	; (8001df4 <TIM_OC2_SetConfig+0xf0>)
 8001d62:	4293      	cmp	r3, r2
 8001d64:	d10d      	bne.n	8001d82 <TIM_OC2_SetConfig+0x7e>
 8001d66:	697b      	ldr	r3, [r7, #20]
 8001d68:	2280      	movs	r2, #128	; 0x80
 8001d6a:	4393      	bics	r3, r2
 8001d6c:	617b      	str	r3, [r7, #20]
 8001d6e:	683b      	ldr	r3, [r7, #0]
 8001d70:	68db      	ldr	r3, [r3, #12]
 8001d72:	011b      	lsls	r3, r3, #4
 8001d74:	697a      	ldr	r2, [r7, #20]
 8001d76:	4313      	orrs	r3, r2
 8001d78:	617b      	str	r3, [r7, #20]
 8001d7a:	697b      	ldr	r3, [r7, #20]
 8001d7c:	2240      	movs	r2, #64	; 0x40
 8001d7e:	4393      	bics	r3, r2
 8001d80:	617b      	str	r3, [r7, #20]
 8001d82:	687b      	ldr	r3, [r7, #4]
 8001d84:	4a1b      	ldr	r2, [pc, #108]	; (8001df4 <TIM_OC2_SetConfig+0xf0>)
 8001d86:	4293      	cmp	r3, r2
 8001d88:	d00b      	beq.n	8001da2 <TIM_OC2_SetConfig+0x9e>
 8001d8a:	687b      	ldr	r3, [r7, #4]
 8001d8c:	4a1a      	ldr	r2, [pc, #104]	; (8001df8 <TIM_OC2_SetConfig+0xf4>)
 8001d8e:	4293      	cmp	r3, r2
 8001d90:	d007      	beq.n	8001da2 <TIM_OC2_SetConfig+0x9e>
 8001d92:	687b      	ldr	r3, [r7, #4]
 8001d94:	4a19      	ldr	r2, [pc, #100]	; (8001dfc <TIM_OC2_SetConfig+0xf8>)
 8001d96:	4293      	cmp	r3, r2
 8001d98:	d003      	beq.n	8001da2 <TIM_OC2_SetConfig+0x9e>
 8001d9a:	687b      	ldr	r3, [r7, #4]
 8001d9c:	4a18      	ldr	r2, [pc, #96]	; (8001e00 <TIM_OC2_SetConfig+0xfc>)
 8001d9e:	4293      	cmp	r3, r2
 8001da0:	d113      	bne.n	8001dca <TIM_OC2_SetConfig+0xc6>
 8001da2:	693b      	ldr	r3, [r7, #16]
 8001da4:	4a17      	ldr	r2, [pc, #92]	; (8001e04 <TIM_OC2_SetConfig+0x100>)
 8001da6:	4013      	ands	r3, r2
 8001da8:	613b      	str	r3, [r7, #16]
 8001daa:	693b      	ldr	r3, [r7, #16]
 8001dac:	4a16      	ldr	r2, [pc, #88]	; (8001e08 <TIM_OC2_SetConfig+0x104>)
 8001dae:	4013      	ands	r3, r2
 8001db0:	613b      	str	r3, [r7, #16]
 8001db2:	683b      	ldr	r3, [r7, #0]
 8001db4:	695b      	ldr	r3, [r3, #20]
 8001db6:	009b      	lsls	r3, r3, #2
 8001db8:	693a      	ldr	r2, [r7, #16]
 8001dba:	4313      	orrs	r3, r2
 8001dbc:	613b      	str	r3, [r7, #16]
 8001dbe:	683b      	ldr	r3, [r7, #0]
 8001dc0:	699b      	ldr	r3, [r3, #24]
 8001dc2:	009b      	lsls	r3, r3, #2
 8001dc4:	693a      	ldr	r2, [r7, #16]
 8001dc6:	4313      	orrs	r3, r2
 8001dc8:	613b      	str	r3, [r7, #16]
 8001dca:	687b      	ldr	r3, [r7, #4]
 8001dcc:	693a      	ldr	r2, [r7, #16]
 8001dce:	605a      	str	r2, [r3, #4]
 8001dd0:	687b      	ldr	r3, [r7, #4]
 8001dd2:	68fa      	ldr	r2, [r7, #12]
 8001dd4:	619a      	str	r2, [r3, #24]
 8001dd6:	683b      	ldr	r3, [r7, #0]
 8001dd8:	685a      	ldr	r2, [r3, #4]
 8001dda:	687b      	ldr	r3, [r7, #4]
 8001ddc:	639a      	str	r2, [r3, #56]	; 0x38
 8001dde:	687b      	ldr	r3, [r7, #4]
 8001de0:	697a      	ldr	r2, [r7, #20]
 8001de2:	621a      	str	r2, [r3, #32]
 8001de4:	46c0      	nop			; (mov r8, r8)
 8001de6:	46bd      	mov	sp, r7
 8001de8:	b006      	add	sp, #24
 8001dea:	bd80      	pop	{r7, pc}
 8001dec:	ffff8fff 	.word	0xffff8fff
 8001df0:	fffffcff 	.word	0xfffffcff
 8001df4:	40012c00 	.word	0x40012c00
 8001df8:	40014000 	.word	0x40014000
 8001dfc:	40014400 	.word	0x40014400
 8001e00:	40014800 	.word	0x40014800
 8001e04:	fffffbff 	.word	0xfffffbff
 8001e08:	fffff7ff 	.word	0xfffff7ff

08001e0c <TIM_OC3_SetConfig>:
 8001e0c:	b580      	push	{r7, lr}
 8001e0e:	b086      	sub	sp, #24
 8001e10:	af00      	add	r7, sp, #0
 8001e12:	6078      	str	r0, [r7, #4]
 8001e14:	6039      	str	r1, [r7, #0]
 8001e16:	687b      	ldr	r3, [r7, #4]
 8001e18:	6a1b      	ldr	r3, [r3, #32]
 8001e1a:	4a35      	ldr	r2, [pc, #212]	; (8001ef0 <TIM_OC3_SetConfig+0xe4>)
 8001e1c:	401a      	ands	r2, r3
 8001e1e:	687b      	ldr	r3, [r7, #4]
 8001e20:	621a      	str	r2, [r3, #32]
 8001e22:	687b      	ldr	r3, [r7, #4]
 8001e24:	6a1b      	ldr	r3, [r3, #32]
 8001e26:	617b      	str	r3, [r7, #20]
 8001e28:	687b      	ldr	r3, [r7, #4]
 8001e2a:	685b      	ldr	r3, [r3, #4]
 8001e2c:	613b      	str	r3, [r7, #16]
 8001e2e:	687b      	ldr	r3, [r7, #4]
 8001e30:	69db      	ldr	r3, [r3, #28]
 8001e32:	60fb      	str	r3, [r7, #12]
 8001e34:	68fb      	ldr	r3, [r7, #12]
 8001e36:	2270      	movs	r2, #112	; 0x70
 8001e38:	4393      	bics	r3, r2
 8001e3a:	60fb      	str	r3, [r7, #12]
 8001e3c:	68fb      	ldr	r3, [r7, #12]
 8001e3e:	2203      	movs	r2, #3
 8001e40:	4393      	bics	r3, r2
 8001e42:	60fb      	str	r3, [r7, #12]
 8001e44:	683b      	ldr	r3, [r7, #0]
 8001e46:	681b      	ldr	r3, [r3, #0]
 8001e48:	68fa      	ldr	r2, [r7, #12]
 8001e4a:	4313      	orrs	r3, r2
 8001e4c:	60fb      	str	r3, [r7, #12]
 8001e4e:	697b      	ldr	r3, [r7, #20]
 8001e50:	4a28      	ldr	r2, [pc, #160]	; (8001ef4 <TIM_OC3_SetConfig+0xe8>)
 8001e52:	4013      	ands	r3, r2
 8001e54:	617b      	str	r3, [r7, #20]
 8001e56:	683b      	ldr	r3, [r7, #0]
 8001e58:	689b      	ldr	r3, [r3, #8]
 8001e5a:	021b      	lsls	r3, r3, #8
 8001e5c:	697a      	ldr	r2, [r7, #20]
 8001e5e:	4313      	orrs	r3, r2
 8001e60:	617b      	str	r3, [r7, #20]
 8001e62:	687b      	ldr	r3, [r7, #4]
 8001e64:	4a24      	ldr	r2, [pc, #144]	; (8001ef8 <TIM_OC3_SetConfig+0xec>)
 8001e66:	4293      	cmp	r3, r2
 8001e68:	d10d      	bne.n	8001e86 <TIM_OC3_SetConfig+0x7a>
 8001e6a:	697b      	ldr	r3, [r7, #20]
 8001e6c:	4a23      	ldr	r2, [pc, #140]	; (8001efc <TIM_OC3_SetConfig+0xf0>)
 8001e6e:	4013      	ands	r3, r2
 8001e70:	617b      	str	r3, [r7, #20]
 8001e72:	683b      	ldr	r3, [r7, #0]
 8001e74:	68db      	ldr	r3, [r3, #12]
 8001e76:	021b      	lsls	r3, r3, #8
 8001e78:	697a      	ldr	r2, [r7, #20]
 8001e7a:	4313      	orrs	r3, r2
 8001e7c:	617b      	str	r3, [r7, #20]
 8001e7e:	697b      	ldr	r3, [r7, #20]
 8001e80:	4a1f      	ldr	r2, [pc, #124]	; (8001f00 <TIM_OC3_SetConfig+0xf4>)
 8001e82:	4013      	ands	r3, r2
 8001e84:	617b      	str	r3, [r7, #20]
 8001e86:	687b      	ldr	r3, [r7, #4]
 8001e88:	4a1b      	ldr	r2, [pc, #108]	; (8001ef8 <TIM_OC3_SetConfig+0xec>)
 8001e8a:	4293      	cmp	r3, r2
 8001e8c:	d00b      	beq.n	8001ea6 <TIM_OC3_SetConfig+0x9a>
 8001e8e:	687b      	ldr	r3, [r7, #4]
 8001e90:	4a1c      	ldr	r2, [pc, #112]	; (8001f04 <TIM_OC3_SetConfig+0xf8>)
 8001e92:	4293      	cmp	r3, r2
 8001e94:	d007      	beq.n	8001ea6 <TIM_OC3_SetConfig+0x9a>
 8001e96:	687b      	ldr	r3, [r7, #4]
 8001e98:	4a1b      	ldr	r2, [pc, #108]	; (8001f08 <TIM_OC3_SetConfig+0xfc>)
 8001e9a:	4293      	cmp	r3, r2
 8001e9c:	d003      	beq.n	8001ea6 <TIM_OC3_SetConfig+0x9a>
 8001e9e:	687b      	ldr	r3, [r7, #4]
 8001ea0:	4a1a      	ldr	r2, [pc, #104]	; (8001f0c <TIM_OC3_SetConfig+0x100>)
 8001ea2:	4293      	cmp	r3, r2
 8001ea4:	d113      	bne.n	8001ece <TIM_OC3_SetConfig+0xc2>
 8001ea6:	693b      	ldr	r3, [r7, #16]
 8001ea8:	4a19      	ldr	r2, [pc, #100]	; (8001f10 <TIM_OC3_SetConfig+0x104>)
 8001eaa:	4013      	ands	r3, r2
 8001eac:	613b      	str	r3, [r7, #16]
 8001eae:	693b      	ldr	r3, [r7, #16]
 8001eb0:	4a18      	ldr	r2, [pc, #96]	; (8001f14 <TIM_OC3_SetConfig+0x108>)
 8001eb2:	4013      	ands	r3, r2
 8001eb4:	613b      	str	r3, [r7, #16]
 8001eb6:	683b      	ldr	r3, [r7, #0]
 8001eb8:	695b      	ldr	r3, [r3, #20]
 8001eba:	011b      	lsls	r3, r3, #4
 8001ebc:	693a      	ldr	r2, [r7, #16]
 8001ebe:	4313      	orrs	r3, r2
 8001ec0:	613b      	str	r3, [r7, #16]
 8001ec2:	683b      	ldr	r3, [r7, #0]
 8001ec4:	699b      	ldr	r3, [r3, #24]
 8001ec6:	011b      	lsls	r3, r3, #4
 8001ec8:	693a      	ldr	r2, [r7, #16]
 8001eca:	4313      	orrs	r3, r2
 8001ecc:	613b      	str	r3, [r7, #16]
 8001ece:	687b      	ldr	r3, [r7, #4]
 8001ed0:	693a      	ldr	r2, [r7, #16]
 8001ed2:	605a      	str	r2, [r3, #4]
 8001ed4:	687b      	ldr	r3, [r7, #4]
 8001ed6:	68fa      	ldr	r2, [r7, #12]
 8001ed8:	61da      	str	r2, [r3, #28]
 8001eda:	683b      	ldr	r3, [r7, #0]
 8001edc:	685a      	ldr	r2, [r3, #4]
 8001ede:	687b      	ldr	r3, [r7, #4]
 8001ee0:	63da      	str	r2, [r3, #60]	; 0x3c
 8001ee2:	687b      	ldr	r3, [r7, #4]
 8001ee4:	697a      	ldr	r2, [r7, #20]
 8001ee6:	621a      	str	r2, [r3, #32]
 8001ee8:	46c0      	nop			; (mov r8, r8)
 8001eea:	46bd      	mov	sp, r7
 8001eec:	b006      	add	sp, #24
 8001eee:	bd80      	pop	{r7, pc}
 8001ef0:	fffffeff 	.word	0xfffffeff
 8001ef4:	fffffdff 	.word	0xfffffdff
 8001ef8:	40012c00 	.word	0x40012c00
 8001efc:	fffff7ff 	.word	0xfffff7ff
 8001f00:	fffffbff 	.word	0xfffffbff
 8001f04:	40014000 	.word	0x40014000
 8001f08:	40014400 	.word	0x40014400
 8001f0c:	40014800 	.word	0x40014800
 8001f10:	ffffefff 	.word	0xffffefff
 8001f14:	ffffdfff 	.word	0xffffdfff

08001f18 <TIM_OC4_SetConfig>:
 8001f18:	b580      	push	{r7, lr}
 8001f1a:	b086      	sub	sp, #24
 8001f1c:	af00      	add	r7, sp, #0
 8001f1e:	6078      	str	r0, [r7, #4]
 8001f20:	6039      	str	r1, [r7, #0]
 8001f22:	687b      	ldr	r3, [r7, #4]
 8001f24:	6a1b      	ldr	r3, [r3, #32]
 8001f26:	4a28      	ldr	r2, [pc, #160]	; (8001fc8 <TIM_OC4_SetConfig+0xb0>)
 8001f28:	401a      	ands	r2, r3
 8001f2a:	687b      	ldr	r3, [r7, #4]
 8001f2c:	621a      	str	r2, [r3, #32]
 8001f2e:	687b      	ldr	r3, [r7, #4]
 8001f30:	6a1b      	ldr	r3, [r3, #32]
 8001f32:	613b      	str	r3, [r7, #16]
 8001f34:	687b      	ldr	r3, [r7, #4]
 8001f36:	685b      	ldr	r3, [r3, #4]
 8001f38:	617b      	str	r3, [r7, #20]
 8001f3a:	687b      	ldr	r3, [r7, #4]
 8001f3c:	69db      	ldr	r3, [r3, #28]
 8001f3e:	60fb      	str	r3, [r7, #12]
 8001f40:	68fb      	ldr	r3, [r7, #12]
 8001f42:	4a22      	ldr	r2, [pc, #136]	; (8001fcc <TIM_OC4_SetConfig+0xb4>)
 8001f44:	4013      	ands	r3, r2
 8001f46:	60fb      	str	r3, [r7, #12]
 8001f48:	68fb      	ldr	r3, [r7, #12]
 8001f4a:	4a21      	ldr	r2, [pc, #132]	; (8001fd0 <TIM_OC4_SetConfig+0xb8>)
 8001f4c:	4013      	ands	r3, r2
 8001f4e:	60fb      	str	r3, [r7, #12]
 8001f50:	683b      	ldr	r3, [r7, #0]
 8001f52:	681b      	ldr	r3, [r3, #0]
 8001f54:	021b      	lsls	r3, r3, #8
 8001f56:	68fa      	ldr	r2, [r7, #12]
 8001f58:	4313      	orrs	r3, r2
 8001f5a:	60fb      	str	r3, [r7, #12]
 8001f5c:	693b      	ldr	r3, [r7, #16]
 8001f5e:	4a1d      	ldr	r2, [pc, #116]	; (8001fd4 <TIM_OC4_SetConfig+0xbc>)
 8001f60:	4013      	ands	r3, r2
 8001f62:	613b      	str	r3, [r7, #16]
 8001f64:	683b      	ldr	r3, [r7, #0]
 8001f66:	689b      	ldr	r3, [r3, #8]
 8001f68:	031b      	lsls	r3, r3, #12
 8001f6a:	693a      	ldr	r2, [r7, #16]
 8001f6c:	4313      	orrs	r3, r2
 8001f6e:	613b      	str	r3, [r7, #16]
 8001f70:	687b      	ldr	r3, [r7, #4]
 8001f72:	4a19      	ldr	r2, [pc, #100]	; (8001fd8 <TIM_OC4_SetConfig+0xc0>)
 8001f74:	4293      	cmp	r3, r2
 8001f76:	d00b      	beq.n	8001f90 <TIM_OC4_SetConfig+0x78>
 8001f78:	687b      	ldr	r3, [r7, #4]
 8001f7a:	4a18      	ldr	r2, [pc, #96]	; (8001fdc <TIM_OC4_SetConfig+0xc4>)
 8001f7c:	4293      	cmp	r3, r2
 8001f7e:	d007      	beq.n	8001f90 <TIM_OC4_SetConfig+0x78>
 8001f80:	687b      	ldr	r3, [r7, #4]
 8001f82:	4a17      	ldr	r2, [pc, #92]	; (8001fe0 <TIM_OC4_SetConfig+0xc8>)
 8001f84:	4293      	cmp	r3, r2
 8001f86:	d003      	beq.n	8001f90 <TIM_OC4_SetConfig+0x78>
 8001f88:	687b      	ldr	r3, [r7, #4]
 8001f8a:	4a16      	ldr	r2, [pc, #88]	; (8001fe4 <TIM_OC4_SetConfig+0xcc>)
 8001f8c:	4293      	cmp	r3, r2
 8001f8e:	d109      	bne.n	8001fa4 <TIM_OC4_SetConfig+0x8c>
 8001f90:	697b      	ldr	r3, [r7, #20]
 8001f92:	4a15      	ldr	r2, [pc, #84]	; (8001fe8 <TIM_OC4_SetConfig+0xd0>)
 8001f94:	4013      	ands	r3, r2
 8001f96:	617b      	str	r3, [r7, #20]
 8001f98:	683b      	ldr	r3, [r7, #0]
 8001f9a:	695b      	ldr	r3, [r3, #20]
 8001f9c:	019b      	lsls	r3, r3, #6
 8001f9e:	697a      	ldr	r2, [r7, #20]
 8001fa0:	4313      	orrs	r3, r2
 8001fa2:	617b      	str	r3, [r7, #20]
 8001fa4:	687b      	ldr	r3, [r7, #4]
 8001fa6:	697a      	ldr	r2, [r7, #20]
 8001fa8:	605a      	str	r2, [r3, #4]
 8001faa:	687b      	ldr	r3, [r7, #4]
 8001fac:	68fa      	ldr	r2, [r7, #12]
 8001fae:	61da      	str	r2, [r3, #28]
 8001fb0:	683b      	ldr	r3, [r7, #0]
 8001fb2:	685a      	ldr	r2, [r3, #4]
 8001fb4:	687b      	ldr	r3, [r7, #4]
 8001fb6:	641a      	str	r2, [r3, #64]	; 0x40
 8001fb8:	687b      	ldr	r3, [r7, #4]
 8001fba:	693a      	ldr	r2, [r7, #16]
 8001fbc:	621a      	str	r2, [r3, #32]
 8001fbe:	46c0      	nop			; (mov r8, r8)
 8001fc0:	46bd      	mov	sp, r7
 8001fc2:	b006      	add	sp, #24
 8001fc4:	bd80      	pop	{r7, pc}
 8001fc6:	46c0      	nop			; (mov r8, r8)
 8001fc8:	ffffefff 	.word	0xffffefff
 8001fcc:	ffff8fff 	.word	0xffff8fff
 8001fd0:	fffffcff 	.word	0xfffffcff
 8001fd4:	ffffdfff 	.word	0xffffdfff
 8001fd8:	40012c00 	.word	0x40012c00
 8001fdc:	40014000 	.word	0x40014000
 8001fe0:	40014400 	.word	0x40014400
 8001fe4:	40014800 	.word	0x40014800
 8001fe8:	ffffbfff 	.word	0xffffbfff

08001fec <HAL_TIMEx_OCN_Start_IT>:
 8001fec:	b580      	push	{r7, lr}
 8001fee:	b084      	sub	sp, #16
 8001ff0:	af00      	add	r7, sp, #0
 8001ff2:	6078      	str	r0, [r7, #4]
 8001ff4:	6039      	str	r1, [r7, #0]
 8001ff6:	230f      	movs	r3, #15
 8001ff8:	18fb      	adds	r3, r7, r3
 8001ffa:	2200      	movs	r2, #0
 8001ffc:	701a      	strb	r2, [r3, #0]
 8001ffe:	683b      	ldr	r3, [r7, #0]
 8002000:	2b00      	cmp	r3, #0
 8002002:	d108      	bne.n	8002016 <HAL_TIMEx_OCN_Start_IT+0x2a>
 8002004:	687b      	ldr	r3, [r7, #4]
 8002006:	2242      	movs	r2, #66	; 0x42
 8002008:	5c9b      	ldrb	r3, [r3, r2]
 800200a:	b2db      	uxtb	r3, r3
 800200c:	3b01      	subs	r3, #1
 800200e:	1e5a      	subs	r2, r3, #1
 8002010:	4193      	sbcs	r3, r2
 8002012:	b2db      	uxtb	r3, r3
 8002014:	e01f      	b.n	8002056 <HAL_TIMEx_OCN_Start_IT+0x6a>
 8002016:	683b      	ldr	r3, [r7, #0]
 8002018:	2b04      	cmp	r3, #4
 800201a:	d108      	bne.n	800202e <HAL_TIMEx_OCN_Start_IT+0x42>
 800201c:	687b      	ldr	r3, [r7, #4]
 800201e:	2243      	movs	r2, #67	; 0x43
 8002020:	5c9b      	ldrb	r3, [r3, r2]
 8002022:	b2db      	uxtb	r3, r3
 8002024:	3b01      	subs	r3, #1
 8002026:	1e5a      	subs	r2, r3, #1
 8002028:	4193      	sbcs	r3, r2
 800202a:	b2db      	uxtb	r3, r3
 800202c:	e013      	b.n	8002056 <HAL_TIMEx_OCN_Start_IT+0x6a>
 800202e:	683b      	ldr	r3, [r7, #0]
 8002030:	2b08      	cmp	r3, #8
 8002032:	d108      	bne.n	8002046 <HAL_TIMEx_OCN_Start_IT+0x5a>
 8002034:	687b      	ldr	r3, [r7, #4]
 8002036:	2244      	movs	r2, #68	; 0x44
 8002038:	5c9b      	ldrb	r3, [r3, r2]
 800203a:	b2db      	uxtb	r3, r3
 800203c:	3b01      	subs	r3, #1
 800203e:	1e5a      	subs	r2, r3, #1
 8002040:	4193      	sbcs	r3, r2
 8002042:	b2db      	uxtb	r3, r3
 8002044:	e007      	b.n	8002056 <HAL_TIMEx_OCN_Start_IT+0x6a>
 8002046:	687b      	ldr	r3, [r7, #4]
 8002048:	2245      	movs	r2, #69	; 0x45
 800204a:	5c9b      	ldrb	r3, [r3, r2]
 800204c:	b2db      	uxtb	r3, r3
 800204e:	3b01      	subs	r3, #1
 8002050:	1e5a      	subs	r2, r3, #1
 8002052:	4193      	sbcs	r3, r2
 8002054:	b2db      	uxtb	r3, r3
 8002056:	2b00      	cmp	r3, #0
 8002058:	d001      	beq.n	800205e <HAL_TIMEx_OCN_Start_IT+0x72>
 800205a:	2301      	movs	r3, #1
 800205c:	e091      	b.n	8002182 <HAL_TIMEx_OCN_Start_IT+0x196>
 800205e:	683b      	ldr	r3, [r7, #0]
 8002060:	2b00      	cmp	r3, #0
 8002062:	d104      	bne.n	800206e <HAL_TIMEx_OCN_Start_IT+0x82>
 8002064:	687b      	ldr	r3, [r7, #4]
 8002066:	2242      	movs	r2, #66	; 0x42
 8002068:	2102      	movs	r1, #2
 800206a:	5499      	strb	r1, [r3, r2]
 800206c:	e013      	b.n	8002096 <HAL_TIMEx_OCN_Start_IT+0xaa>
 800206e:	683b      	ldr	r3, [r7, #0]
 8002070:	2b04      	cmp	r3, #4
 8002072:	d104      	bne.n	800207e <HAL_TIMEx_OCN_Start_IT+0x92>
 8002074:	687b      	ldr	r3, [r7, #4]
 8002076:	2243      	movs	r2, #67	; 0x43
 8002078:	2102      	movs	r1, #2
 800207a:	5499      	strb	r1, [r3, r2]
 800207c:	e00b      	b.n	8002096 <HAL_TIMEx_OCN_Start_IT+0xaa>
 800207e:	683b      	ldr	r3, [r7, #0]
 8002080:	2b08      	cmp	r3, #8
 8002082:	d104      	bne.n	800208e <HAL_TIMEx_OCN_Start_IT+0xa2>
 8002084:	687b      	ldr	r3, [r7, #4]
 8002086:	2244      	movs	r2, #68	; 0x44
 8002088:	2102      	movs	r1, #2
 800208a:	5499      	strb	r1, [r3, r2]
 800208c:	e003      	b.n	8002096 <HAL_TIMEx_OCN_Start_IT+0xaa>
 800208e:	687b      	ldr	r3, [r7, #4]
 8002090:	2245      	movs	r2, #69	; 0x45
 8002092:	2102      	movs	r1, #2
 8002094:	5499      	strb	r1, [r3, r2]
 8002096:	683b      	ldr	r3, [r7, #0]
 8002098:	2b08      	cmp	r3, #8
 800209a:	d01b      	beq.n	80020d4 <HAL_TIMEx_OCN_Start_IT+0xe8>
 800209c:	683b      	ldr	r3, [r7, #0]
 800209e:	2b08      	cmp	r3, #8
 80020a0:	d821      	bhi.n	80020e6 <HAL_TIMEx_OCN_Start_IT+0xfa>
 80020a2:	683b      	ldr	r3, [r7, #0]
 80020a4:	2b00      	cmp	r3, #0
 80020a6:	d003      	beq.n	80020b0 <HAL_TIMEx_OCN_Start_IT+0xc4>
 80020a8:	683b      	ldr	r3, [r7, #0]
 80020aa:	2b04      	cmp	r3, #4
 80020ac:	d009      	beq.n	80020c2 <HAL_TIMEx_OCN_Start_IT+0xd6>
 80020ae:	e01a      	b.n	80020e6 <HAL_TIMEx_OCN_Start_IT+0xfa>
 80020b0:	687b      	ldr	r3, [r7, #4]
 80020b2:	681b      	ldr	r3, [r3, #0]
 80020b4:	68da      	ldr	r2, [r3, #12]
 80020b6:	687b      	ldr	r3, [r7, #4]
 80020b8:	681b      	ldr	r3, [r3, #0]
 80020ba:	2102      	movs	r1, #2
 80020bc:	430a      	orrs	r2, r1
 80020be:	60da      	str	r2, [r3, #12]
 80020c0:	e016      	b.n	80020f0 <HAL_TIMEx_OCN_Start_IT+0x104>
 80020c2:	687b      	ldr	r3, [r7, #4]
 80020c4:	681b      	ldr	r3, [r3, #0]
 80020c6:	68da      	ldr	r2, [r3, #12]
 80020c8:	687b      	ldr	r3, [r7, #4]
 80020ca:	681b      	ldr	r3, [r3, #0]
 80020cc:	2104      	movs	r1, #4
 80020ce:	430a      	orrs	r2, r1
 80020d0:	60da      	str	r2, [r3, #12]
 80020d2:	e00d      	b.n	80020f0 <HAL_TIMEx_OCN_Start_IT+0x104>
 80020d4:	687b      	ldr	r3, [r7, #4]
 80020d6:	681b      	ldr	r3, [r3, #0]
 80020d8:	68da      	ldr	r2, [r3, #12]
 80020da:	687b      	ldr	r3, [r7, #4]
 80020dc:	681b      	ldr	r3, [r3, #0]
 80020de:	2108      	movs	r1, #8
 80020e0:	430a      	orrs	r2, r1
 80020e2:	60da      	str	r2, [r3, #12]
 80020e4:	e004      	b.n	80020f0 <HAL_TIMEx_OCN_Start_IT+0x104>
 80020e6:	230f      	movs	r3, #15
 80020e8:	18fb      	adds	r3, r7, r3
 80020ea:	2201      	movs	r2, #1
 80020ec:	701a      	strb	r2, [r3, #0]
 80020ee:	46c0      	nop			; (mov r8, r8)
 80020f0:	230f      	movs	r3, #15
 80020f2:	18fb      	adds	r3, r7, r3
 80020f4:	781b      	ldrb	r3, [r3, #0]
 80020f6:	2b00      	cmp	r3, #0
 80020f8:	d140      	bne.n	800217c <HAL_TIMEx_OCN_Start_IT+0x190>
 80020fa:	687b      	ldr	r3, [r7, #4]
 80020fc:	681b      	ldr	r3, [r3, #0]
 80020fe:	68da      	ldr	r2, [r3, #12]
 8002100:	687b      	ldr	r3, [r7, #4]
 8002102:	681b      	ldr	r3, [r3, #0]
 8002104:	2180      	movs	r1, #128	; 0x80
 8002106:	430a      	orrs	r2, r1
 8002108:	60da      	str	r2, [r3, #12]
 800210a:	687b      	ldr	r3, [r7, #4]
 800210c:	681b      	ldr	r3, [r3, #0]
 800210e:	6839      	ldr	r1, [r7, #0]
 8002110:	2204      	movs	r2, #4
 8002112:	0018      	movs	r0, r3
 8002114:	f000 f906 	bl	8002324 <TIM_CCxNChannelCmd>
 8002118:	687b      	ldr	r3, [r7, #4]
 800211a:	681b      	ldr	r3, [r3, #0]
 800211c:	6c5a      	ldr	r2, [r3, #68]	; 0x44
 800211e:	687b      	ldr	r3, [r7, #4]
 8002120:	681b      	ldr	r3, [r3, #0]
 8002122:	2180      	movs	r1, #128	; 0x80
 8002124:	0209      	lsls	r1, r1, #8
 8002126:	430a      	orrs	r2, r1
 8002128:	645a      	str	r2, [r3, #68]	; 0x44
 800212a:	687b      	ldr	r3, [r7, #4]
 800212c:	681b      	ldr	r3, [r3, #0]
 800212e:	4a17      	ldr	r2, [pc, #92]	; (800218c <HAL_TIMEx_OCN_Start_IT+0x1a0>)
 8002130:	4293      	cmp	r3, r2
 8002132:	d009      	beq.n	8002148 <HAL_TIMEx_OCN_Start_IT+0x15c>
 8002134:	687b      	ldr	r3, [r7, #4]
 8002136:	681b      	ldr	r3, [r3, #0]
 8002138:	4a15      	ldr	r2, [pc, #84]	; (8002190 <HAL_TIMEx_OCN_Start_IT+0x1a4>)
 800213a:	4293      	cmp	r3, r2
 800213c:	d004      	beq.n	8002148 <HAL_TIMEx_OCN_Start_IT+0x15c>
 800213e:	687b      	ldr	r3, [r7, #4]
 8002140:	681b      	ldr	r3, [r3, #0]
 8002142:	4a14      	ldr	r2, [pc, #80]	; (8002194 <HAL_TIMEx_OCN_Start_IT+0x1a8>)
 8002144:	4293      	cmp	r3, r2
 8002146:	d111      	bne.n	800216c <HAL_TIMEx_OCN_Start_IT+0x180>
 8002148:	687b      	ldr	r3, [r7, #4]
 800214a:	681b      	ldr	r3, [r3, #0]
 800214c:	689b      	ldr	r3, [r3, #8]
 800214e:	2207      	movs	r2, #7
 8002150:	4013      	ands	r3, r2
 8002152:	60bb      	str	r3, [r7, #8]
 8002154:	68bb      	ldr	r3, [r7, #8]
 8002156:	2b06      	cmp	r3, #6
 8002158:	d010      	beq.n	800217c <HAL_TIMEx_OCN_Start_IT+0x190>
 800215a:	687b      	ldr	r3, [r7, #4]
 800215c:	681b      	ldr	r3, [r3, #0]
 800215e:	681a      	ldr	r2, [r3, #0]
 8002160:	687b      	ldr	r3, [r7, #4]
 8002162:	681b      	ldr	r3, [r3, #0]
 8002164:	2101      	movs	r1, #1
 8002166:	430a      	orrs	r2, r1
 8002168:	601a      	str	r2, [r3, #0]
 800216a:	e007      	b.n	800217c <HAL_TIMEx_OCN_Start_IT+0x190>
 800216c:	687b      	ldr	r3, [r7, #4]
 800216e:	681b      	ldr	r3, [r3, #0]
 8002170:	681a      	ldr	r2, [r3, #0]
 8002172:	687b      	ldr	r3, [r7, #4]
 8002174:	681b      	ldr	r3, [r3, #0]
 8002176:	2101      	movs	r1, #1
 8002178:	430a      	orrs	r2, r1
 800217a:	601a      	str	r2, [r3, #0]
 800217c:	230f      	movs	r3, #15
 800217e:	18fb      	adds	r3, r7, r3
 8002180:	781b      	ldrb	r3, [r3, #0]
 8002182:	0018      	movs	r0, r3
 8002184:	46bd      	mov	sp, r7
 8002186:	b004      	add	sp, #16
 8002188:	bd80      	pop	{r7, pc}
 800218a:	46c0      	nop			; (mov r8, r8)
 800218c:	40012c00 	.word	0x40012c00
 8002190:	40000400 	.word	0x40000400
 8002194:	40014000 	.word	0x40014000

08002198 <HAL_TIMEx_MasterConfigSynchronization>:
 8002198:	b580      	push	{r7, lr}
 800219a:	b084      	sub	sp, #16
 800219c:	af00      	add	r7, sp, #0
 800219e:	6078      	str	r0, [r7, #4]
 80021a0:	6039      	str	r1, [r7, #0]
 80021a2:	687b      	ldr	r3, [r7, #4]
 80021a4:	223c      	movs	r2, #60	; 0x3c
 80021a6:	5c9b      	ldrb	r3, [r3, r2]
 80021a8:	2b01      	cmp	r3, #1
 80021aa:	d101      	bne.n	80021b0 <HAL_TIMEx_MasterConfigSynchronization+0x18>
 80021ac:	2302      	movs	r3, #2
 80021ae:	e041      	b.n	8002234 <HAL_TIMEx_MasterConfigSynchronization+0x9c>
 80021b0:	687b      	ldr	r3, [r7, #4]
 80021b2:	223c      	movs	r2, #60	; 0x3c
 80021b4:	2101      	movs	r1, #1
 80021b6:	5499      	strb	r1, [r3, r2]
 80021b8:	687b      	ldr	r3, [r7, #4]
 80021ba:	223d      	movs	r2, #61	; 0x3d
 80021bc:	2102      	movs	r1, #2
 80021be:	5499      	strb	r1, [r3, r2]
 80021c0:	687b      	ldr	r3, [r7, #4]
 80021c2:	681b      	ldr	r3, [r3, #0]
 80021c4:	685b      	ldr	r3, [r3, #4]
 80021c6:	60fb      	str	r3, [r7, #12]
 80021c8:	687b      	ldr	r3, [r7, #4]
 80021ca:	681b      	ldr	r3, [r3, #0]
 80021cc:	689b      	ldr	r3, [r3, #8]
 80021ce:	60bb      	str	r3, [r7, #8]
 80021d0:	68fb      	ldr	r3, [r7, #12]
 80021d2:	2270      	movs	r2, #112	; 0x70
 80021d4:	4393      	bics	r3, r2
 80021d6:	60fb      	str	r3, [r7, #12]
 80021d8:	683b      	ldr	r3, [r7, #0]
 80021da:	681b      	ldr	r3, [r3, #0]
 80021dc:	68fa      	ldr	r2, [r7, #12]
 80021de:	4313      	orrs	r3, r2
 80021e0:	60fb      	str	r3, [r7, #12]
 80021e2:	687b      	ldr	r3, [r7, #4]
 80021e4:	681b      	ldr	r3, [r3, #0]
 80021e6:	68fa      	ldr	r2, [r7, #12]
 80021e8:	605a      	str	r2, [r3, #4]
 80021ea:	687b      	ldr	r3, [r7, #4]
 80021ec:	681b      	ldr	r3, [r3, #0]
 80021ee:	4a13      	ldr	r2, [pc, #76]	; (800223c <HAL_TIMEx_MasterConfigSynchronization+0xa4>)
 80021f0:	4293      	cmp	r3, r2
 80021f2:	d009      	beq.n	8002208 <HAL_TIMEx_MasterConfigSynchronization+0x70>
 80021f4:	687b      	ldr	r3, [r7, #4]
 80021f6:	681b      	ldr	r3, [r3, #0]
 80021f8:	4a11      	ldr	r2, [pc, #68]	; (8002240 <HAL_TIMEx_MasterConfigSynchronization+0xa8>)
 80021fa:	4293      	cmp	r3, r2
 80021fc:	d004      	beq.n	8002208 <HAL_TIMEx_MasterConfigSynchronization+0x70>
 80021fe:	687b      	ldr	r3, [r7, #4]
 8002200:	681b      	ldr	r3, [r3, #0]
 8002202:	4a10      	ldr	r2, [pc, #64]	; (8002244 <HAL_TIMEx_MasterConfigSynchronization+0xac>)
 8002204:	4293      	cmp	r3, r2
 8002206:	d10c      	bne.n	8002222 <HAL_TIMEx_MasterConfigSynchronization+0x8a>
 8002208:	68bb      	ldr	r3, [r7, #8]
 800220a:	2280      	movs	r2, #128	; 0x80
 800220c:	4393      	bics	r3, r2
 800220e:	60bb      	str	r3, [r7, #8]
 8002210:	683b      	ldr	r3, [r7, #0]
 8002212:	685b      	ldr	r3, [r3, #4]
 8002214:	68ba      	ldr	r2, [r7, #8]
 8002216:	4313      	orrs	r3, r2
 8002218:	60bb      	str	r3, [r7, #8]
 800221a:	687b      	ldr	r3, [r7, #4]
 800221c:	681b      	ldr	r3, [r3, #0]
 800221e:	68ba      	ldr	r2, [r7, #8]
 8002220:	609a      	str	r2, [r3, #8]
 8002222:	687b      	ldr	r3, [r7, #4]
 8002224:	223d      	movs	r2, #61	; 0x3d
 8002226:	2101      	movs	r1, #1
 8002228:	5499      	strb	r1, [r3, r2]
 800222a:	687b      	ldr	r3, [r7, #4]
 800222c:	223c      	movs	r2, #60	; 0x3c
 800222e:	2100      	movs	r1, #0
 8002230:	5499      	strb	r1, [r3, r2]
 8002232:	2300      	movs	r3, #0
 8002234:	0018      	movs	r0, r3
 8002236:	46bd      	mov	sp, r7
 8002238:	b004      	add	sp, #16
 800223a:	bd80      	pop	{r7, pc}
 800223c:	40012c00 	.word	0x40012c00
 8002240:	40000400 	.word	0x40000400
 8002244:	40014000 	.word	0x40014000

08002248 <HAL_TIMEx_ConfigBreakDeadTime>:
 8002248:	b580      	push	{r7, lr}
 800224a:	b084      	sub	sp, #16
 800224c:	af00      	add	r7, sp, #0
 800224e:	6078      	str	r0, [r7, #4]
 8002250:	6039      	str	r1, [r7, #0]
 8002252:	2300      	movs	r3, #0
 8002254:	60fb      	str	r3, [r7, #12]
 8002256:	687b      	ldr	r3, [r7, #4]
 8002258:	223c      	movs	r2, #60	; 0x3c
 800225a:	5c9b      	ldrb	r3, [r3, r2]
 800225c:	2b01      	cmp	r3, #1
 800225e:	d101      	bne.n	8002264 <HAL_TIMEx_ConfigBreakDeadTime+0x1c>
 8002260:	2302      	movs	r3, #2
 8002262:	e03e      	b.n	80022e2 <HAL_TIMEx_ConfigBreakDeadTime+0x9a>
 8002264:	687b      	ldr	r3, [r7, #4]
 8002266:	223c      	movs	r2, #60	; 0x3c
 8002268:	2101      	movs	r1, #1
 800226a:	5499      	strb	r1, [r3, r2]
 800226c:	68fb      	ldr	r3, [r7, #12]
 800226e:	22ff      	movs	r2, #255	; 0xff
 8002270:	4393      	bics	r3, r2
 8002272:	001a      	movs	r2, r3
 8002274:	683b      	ldr	r3, [r7, #0]
 8002276:	68db      	ldr	r3, [r3, #12]
 8002278:	4313      	orrs	r3, r2
 800227a:	60fb      	str	r3, [r7, #12]
 800227c:	68fb      	ldr	r3, [r7, #12]
 800227e:	4a1b      	ldr	r2, [pc, #108]	; (80022ec <HAL_TIMEx_ConfigBreakDeadTime+0xa4>)
 8002280:	401a      	ands	r2, r3
 8002282:	683b      	ldr	r3, [r7, #0]
 8002284:	689b      	ldr	r3, [r3, #8]
 8002286:	4313      	orrs	r3, r2
 8002288:	60fb      	str	r3, [r7, #12]
 800228a:	68fb      	ldr	r3, [r7, #12]
 800228c:	4a18      	ldr	r2, [pc, #96]	; (80022f0 <HAL_TIMEx_ConfigBreakDeadTime+0xa8>)
 800228e:	401a      	ands	r2, r3
 8002290:	683b      	ldr	r3, [r7, #0]
 8002292:	685b      	ldr	r3, [r3, #4]
 8002294:	4313      	orrs	r3, r2
 8002296:	60fb      	str	r3, [r7, #12]
 8002298:	68fb      	ldr	r3, [r7, #12]
 800229a:	4a16      	ldr	r2, [pc, #88]	; (80022f4 <HAL_TIMEx_ConfigBreakDeadTime+0xac>)
 800229c:	401a      	ands	r2, r3
 800229e:	683b      	ldr	r3, [r7, #0]
 80022a0:	681b      	ldr	r3, [r3, #0]
 80022a2:	4313      	orrs	r3, r2
 80022a4:	60fb      	str	r3, [r7, #12]
 80022a6:	68fb      	ldr	r3, [r7, #12]
 80022a8:	4a13      	ldr	r2, [pc, #76]	; (80022f8 <HAL_TIMEx_ConfigBreakDeadTime+0xb0>)
 80022aa:	401a      	ands	r2, r3
 80022ac:	683b      	ldr	r3, [r7, #0]
 80022ae:	691b      	ldr	r3, [r3, #16]
 80022b0:	4313      	orrs	r3, r2
 80022b2:	60fb      	str	r3, [r7, #12]
 80022b4:	68fb      	ldr	r3, [r7, #12]
 80022b6:	4a11      	ldr	r2, [pc, #68]	; (80022fc <HAL_TIMEx_ConfigBreakDeadTime+0xb4>)
 80022b8:	401a      	ands	r2, r3
 80022ba:	683b      	ldr	r3, [r7, #0]
 80022bc:	695b      	ldr	r3, [r3, #20]
 80022be:	4313      	orrs	r3, r2
 80022c0:	60fb      	str	r3, [r7, #12]
 80022c2:	68fb      	ldr	r3, [r7, #12]
 80022c4:	4a0e      	ldr	r2, [pc, #56]	; (8002300 <HAL_TIMEx_ConfigBreakDeadTime+0xb8>)
 80022c6:	401a      	ands	r2, r3
 80022c8:	683b      	ldr	r3, [r7, #0]
 80022ca:	69db      	ldr	r3, [r3, #28]
 80022cc:	4313      	orrs	r3, r2
 80022ce:	60fb      	str	r3, [r7, #12]
 80022d0:	687b      	ldr	r3, [r7, #4]
 80022d2:	681b      	ldr	r3, [r3, #0]
 80022d4:	68fa      	ldr	r2, [r7, #12]
 80022d6:	645a      	str	r2, [r3, #68]	; 0x44
 80022d8:	687b      	ldr	r3, [r7, #4]
 80022da:	223c      	movs	r2, #60	; 0x3c
 80022dc:	2100      	movs	r1, #0
 80022de:	5499      	strb	r1, [r3, r2]
 80022e0:	2300      	movs	r3, #0
 80022e2:	0018      	movs	r0, r3
 80022e4:	46bd      	mov	sp, r7
 80022e6:	b004      	add	sp, #16
 80022e8:	bd80      	pop	{r7, pc}
 80022ea:	46c0      	nop			; (mov r8, r8)
 80022ec:	fffffcff 	.word	0xfffffcff
 80022f0:	fffffbff 	.word	0xfffffbff
 80022f4:	fffff7ff 	.word	0xfffff7ff
 80022f8:	ffffefff 	.word	0xffffefff
 80022fc:	ffffdfff 	.word	0xffffdfff
 8002300:	ffffbfff 	.word	0xffffbfff

08002304 <HAL_TIMEx_CommutCallback>:
 8002304:	b580      	push	{r7, lr}
 8002306:	b082      	sub	sp, #8
 8002308:	af00      	add	r7, sp, #0
 800230a:	6078      	str	r0, [r7, #4]
 800230c:	46c0      	nop			; (mov r8, r8)
 800230e:	46bd      	mov	sp, r7
 8002310:	b002      	add	sp, #8
 8002312:	bd80      	pop	{r7, pc}

08002314 <HAL_TIMEx_BreakCallback>:
 8002314:	b580      	push	{r7, lr}
 8002316:	b082      	sub	sp, #8
 8002318:	af00      	add	r7, sp, #0
 800231a:	6078      	str	r0, [r7, #4]
 800231c:	46c0      	nop			; (mov r8, r8)
 800231e:	46bd      	mov	sp, r7
 8002320:	b002      	add	sp, #8
 8002322:	bd80      	pop	{r7, pc}

08002324 <TIM_CCxNChannelCmd>:
 8002324:	b580      	push	{r7, lr}
 8002326:	b086      	sub	sp, #24
 8002328:	af00      	add	r7, sp, #0
 800232a:	60f8      	str	r0, [r7, #12]
 800232c:	60b9      	str	r1, [r7, #8]
 800232e:	607a      	str	r2, [r7, #4]
 8002330:	68bb      	ldr	r3, [r7, #8]
 8002332:	221f      	movs	r2, #31
 8002334:	4013      	ands	r3, r2
 8002336:	2204      	movs	r2, #4
 8002338:	409a      	lsls	r2, r3
 800233a:	0013      	movs	r3, r2
 800233c:	617b      	str	r3, [r7, #20]
 800233e:	68fb      	ldr	r3, [r7, #12]
 8002340:	6a1b      	ldr	r3, [r3, #32]
 8002342:	697a      	ldr	r2, [r7, #20]
 8002344:	43d2      	mvns	r2, r2
 8002346:	401a      	ands	r2, r3
 8002348:	68fb      	ldr	r3, [r7, #12]
 800234a:	621a      	str	r2, [r3, #32]
 800234c:	68fb      	ldr	r3, [r7, #12]
 800234e:	6a1a      	ldr	r2, [r3, #32]
 8002350:	68bb      	ldr	r3, [r7, #8]
 8002352:	211f      	movs	r1, #31
 8002354:	400b      	ands	r3, r1
 8002356:	6879      	ldr	r1, [r7, #4]
 8002358:	4099      	lsls	r1, r3
 800235a:	000b      	movs	r3, r1
 800235c:	431a      	orrs	r2, r3
 800235e:	68fb      	ldr	r3, [r7, #12]
 8002360:	621a      	str	r2, [r3, #32]
 8002362:	46c0      	nop			; (mov r8, r8)
 8002364:	46bd      	mov	sp, r7
 8002366:	b006      	add	sp, #24
 8002368:	bd80      	pop	{r7, pc}

0800236a <memset>:
 800236a:	0003      	movs	r3, r0
 800236c:	1882      	adds	r2, r0, r2
 800236e:	4293      	cmp	r3, r2
 8002370:	d100      	bne.n	8002374 <memset+0xa>
 8002372:	4770      	bx	lr
 8002374:	7019      	strb	r1, [r3, #0]
 8002376:	3301      	adds	r3, #1
 8002378:	e7f9      	b.n	800236e <memset+0x4>
	...

0800237c <__libc_init_array>:
 800237c:	b570      	push	{r4, r5, r6, lr}
 800237e:	2600      	movs	r6, #0
 8002380:	4c0c      	ldr	r4, [pc, #48]	; (80023b4 <__libc_init_array+0x38>)
 8002382:	4d0d      	ldr	r5, [pc, #52]	; (80023b8 <__libc_init_array+0x3c>)
 8002384:	1b64      	subs	r4, r4, r5
 8002386:	10a4      	asrs	r4, r4, #2
 8002388:	42a6      	cmp	r6, r4
 800238a:	d109      	bne.n	80023a0 <__libc_init_array+0x24>
 800238c:	2600      	movs	r6, #0
 800238e:	f000 f819 	bl	80023c4 <_init>
 8002392:	4c0a      	ldr	r4, [pc, #40]	; (80023bc <__libc_init_array+0x40>)
 8002394:	4d0a      	ldr	r5, [pc, #40]	; (80023c0 <__libc_init_array+0x44>)
 8002396:	1b64      	subs	r4, r4, r5
 8002398:	10a4      	asrs	r4, r4, #2
 800239a:	42a6      	cmp	r6, r4
 800239c:	d105      	bne.n	80023aa <__libc_init_array+0x2e>
 800239e:	bd70      	pop	{r4, r5, r6, pc}
 80023a0:	00b3      	lsls	r3, r6, #2
 80023a2:	58eb      	ldr	r3, [r5, r3]
 80023a4:	4798      	blx	r3
 80023a6:	3601      	adds	r6, #1
 80023a8:	e7ee      	b.n	8002388 <__libc_init_array+0xc>
 80023aa:	00b3      	lsls	r3, r6, #2
 80023ac:	58eb      	ldr	r3, [r5, r3]
 80023ae:	4798      	blx	r3
 80023b0:	3601      	adds	r6, #1
 80023b2:	e7f2      	b.n	800239a <__libc_init_array+0x1e>
 80023b4:	0800240c 	.word	0x0800240c
 80023b8:	0800240c 	.word	0x0800240c
 80023bc:	08002410 	.word	0x08002410
 80023c0:	0800240c 	.word	0x0800240c

080023c4 <_init>:
 80023c4:	b5f8      	push	{r3, r4, r5, r6, r7, lr}
 80023c6:	46c0      	nop			; (mov r8, r8)
 80023c8:	bcf8      	pop	{r3, r4, r5, r6, r7}
 80023ca:	bc08      	pop	{r3}
 80023cc:	469e      	mov	lr, r3
 80023ce:	4770      	bx	lr

080023d0 <_fini>:
 80023d0:	b5f8      	push	{r3, r4, r5, r6, r7, lr}
 80023d2:	46c0      	nop			; (mov r8, r8)
 80023d4:	bcf8      	pop	{r3, r4, r5, r6, r7}
 80023d6:	bc08      	pop	{r3}
 80023d8:	469e      	mov	lr, r3
 80023da:	4770      	bx	lr
